(lp0
I12046
aI10727
aI295000
aI223165
aI335290
aI261959
aI12975
aI85283
aI381142
aI99689
aI226910
aI106202
aI236294
aI161440
aI403208
aI205952
aI36745
aI44320
aI170635
aI154248
aI392502
aI45087
aI354002
aI72206
aI120623
aI61773
aI308183
aI7871
aI196415
aI309513
aI192085
aI217953
aI125977
aI262641
aI90808
aI237754
aI365904
aI28635
aI230769
aI317078
aI326322
aI76947
aI174193
aI294626
aI272112
aI348205
aI76863
aI348066
aI403802
aI374334
aI342947
aI86372
aI107163
aI234028
aI219083
aI359724
aI99484
aI250261
aI149299
aI379343
aI43244
aI244357
aI289922
aI171125
aI363147
aI357168
aI349274
aI356063
aI297546
aI376015
aI107778
aI89852
aI132600
aI390569
aI216598
aI107230
aI155590
aI286294
aI373859
aI290591
aI299686
aI126794
aI290715
aI124922
aI162531
aI169819
aI364643
aI163
aI264430
aI187804
aI191114
aI321503
aI90727
aI9864
aI167380
aI2239
aI303286
aI20280
aI184343
aI323652
aI383670
aI203851
aI300317
aI191691
aI104671
aI257510
aI31290
aI115385
aI129107
aI218127
aI285267
aI164596
aI219116
aI167897
aI169660
aI344627
aI169202
aI10888
aI335910
aI217801
aI80494
aI88004
aI67745
aI301976
aI46242
aI43644
aI125951
aI253242
aI343293
aI397210
aI172949
aI149610
aI342995
aI331995
aI387892
aI296246
aI343844
aI152998
aI73408
aI283063
aI197233
aI198136
aI320093
aI89454
aI214320
aI301114
aI133531
aI101484
aI77740
aI216310
aI87346
aI91824
aI393274
aI50972
aI350550
aI231717
aI177791
aI74416
aI379849
aI347179
aI123256
aI63389
aI181825
aI239664
aI93424
aI183246
aI252270
aI266849
aI219780
aI261378
aI108764
aI133091
aI183541
aI130453
aI391507
aI265388
aI374339
aI96561
aI335778
aI289155
aI205074
aI348632
aI318763
aI120464
aI236822
aI59956
aI183722
aI230706
aI94236
aI238115
aI62277
aI391026
aI343642
aI289960
aI351954
aI255673
aI151219
aI214283
aI68574
aI97154
aI103001
aI3790
aI273351
aI139401
aI119092
aI110721
aI244612
aI364717
aI250450
aI253415
aI124612
aI295406
aI301503
aI334972
aI301122
aI136619
aI46453
aI389830
aI216417
aI183429
aI94306
aI25496
aI332275
aI121878
aI54714
aI381515
aI169035
aI8612
aI101078
aI299097
aI192044
aI313732
aI43975
aI315828
aI349600
aI245281
aI310055
aI182853
aI167729
aI132909
aI148191
aI307462
aI325448
aI161577
aI57197
aI12359
aI169254
aI34249
aI304341
aI46426
aI130912
aI340403
aI159528
aI136852
aI205766
aI306419
aI311508
aI304089
aI348340
aI27523
aI125109
aI182142
aI335211
aI348329
aI181258
aI326383
aI129585
aI24936
aI99846
aI136366
aI26563
aI134345
aI56995
aI239798
aI319032
aI170625
aI146119
aI86315
aI91291
aI55435
aI151804
aI66705
aI148219
aI322856
aI55765
aI100734
aI223441
aI21458
aI94998
aI375039
aI180741
aI31919
aI364669
aI97472
aI57844
aI167824
aI267657
aI211933
aI398167
aI310803
aI296173
aI133956
aI219962
aI327722
aI16881
aI303449
aI199880
aI200411
aI372327
aI292878
aI331248
aI129386
aI266222
aI277839
aI142010
aI30226
aI383773
aI57509
aI154206
aI243719
aI296306
aI155865
aI226222
aI115018
aI361946
aI35357
aI274647
aI256827
aI319653
aI323659
aI402562
aI289506
aI309760
aI258681
aI138741
aI314222
aI366752
aI360386
aI214827
aI62092
aI243680
aI226959
aI258300
aI232253
aI275823
aI194990
aI125864
aI295631
aI149199
aI107697
aI99824
aI38981
aI9331
aI86623
aI341089
aI47833
aI320027
aI303948
aI204971
aI18238
aI244074
aI246813
aI333453
aI285323
aI394481
aI276985
aI274030
aI277960
aI165196
aI311962
aI142612
aI245572
aI375829
aI110070
aI394524
aI115772
aI287444
aI97587
aI213738
aI40467
aI163772
aI192162
aI365419
aI199371
aI376945
aI228577
aI43183
aI377719
aI188352
aI77595
aI65394
aI34905
aI269326
aI56585
aI99819
aI94778
aI303326
aI403120
aI278779
aI47575
aI283116
aI125139
aI118724
aI53748
aI303698
aI351339
aI179765
aI24850
aI220363
aI230443
aI234642
aI205360
aI291021
aI309395
aI399469
aI349884
aI262940
aI214009
aI331256
aI291690
aI82908
aI19582
aI94275
aI22707
aI202716
aI121397
aI341663
aI120976
aI224175
aI81794
aI6167
aI403492
aI47188
aI402063
aI222062
aI311934
aI153112
aI214648
aI149103
aI232937
aI103497
aI258088
aI338855
aI247947
aI221853
aI159612
aI227215
aI275084
aI3800
aI227549
aI38347
aI29896
aI402741
aI236055
aI286589
aI96695
aI383940
aI399105
aI273293
aI265643
aI320880
aI286724
aI144710
aI108463
aI154886
aI229955
aI194679
aI403043
aI78616
aI43006
aI133560
aI380824
aI197390
aI226670
aI264774
aI287515
aI398245
aI192644
aI369979
aI317851
aI215822
aI34160
aI17805
aI272319
aI302550
aI4239
aI208534
aI310444
aI236584
aI42023
aI280053
aI46256
aI272161
aI395455
aI98034
aI70116
aI79307
aI75139
aI183889
aI139828
aI55405
aI74649
aI255392
aI223003
aI196772
aI56380
aI54868
aI275150
aI337515
aI196386
aI305832
aI220904
aI397725
aI301913
aI119628
aI236239
aI140890
aI285593
aI83022
aI130046
aI395972
aI100318
aI285832
aI332876
aI305952
aI993
aI314929
aI49912
aI262972
aI3730
aI279435
aI53097
aI310706
aI53485
aI57384
aI261114
aI302251
aI56167
aI33841
aI244059
aI264466
aI204662
aI21918
aI306353
aI383360
aI27124
aI15996
aI215432
aI254752
aI34625
aI403194
aI47970
aI210045
aI50976
aI309809
aI109227
aI144623
aI346538
aI367019
aI394099
aI186763
aI339254
aI98428
aI139102
aI337120
aI352227
aI263929
aI285746
aI360280
aI329226
aI126478
aI83364
aI123782
aI279785
aI16191
aI335608
aI131602
aI142822
aI271872
aI104450
aI300331
aI56122
aI253038
aI362308
aI178015
aI75129
aI112343
aI248557
aI55089
aI355119
aI218577
aI366360
aI212515
aI401242
aI399944
aI336853
aI339260
aI237828
aI366855
aI11321
aI226219
aI396560
aI129875
aI310795
aI158771
aI388794
aI51108
aI380738
aI157159
aI88649
aI394241
aI35606
aI154876
aI197871
aI68259
aI246239
aI289726
aI240835
aI117087
aI32876
aI123724
aI159480
aI218323
aI217241
aI222116
aI167962
aI303785
aI396492
aI400097
aI103461
aI168331
aI153663
aI194798
aI244292
aI15557
aI369393
aI304655
aI347854
aI183088
aI49686
aI71229
aI65585
aI229528
aI259657
aI3568
aI365592
aI101228
aI257786
aI169977
aI271601
aI244265
aI396387
aI360815
aI155711
aI14164
aI351492
aI134592
aI356657
aI200689
aI119638
aI164081
aI286970
aI253031
aI1890
aI161747
aI387063
aI149599
aI5644
aI334090
aI271346
aI51695
aI116606
aI399125
aI137415
aI361399
aI14979
aI7914
aI276531
aI190191
aI108235
aI80849
aI15797
aI186114
aI40010
aI403581
aI303934
aI352139
aI37259
aI73303
aI279052
aI23507
aI271922
aI336108
aI390181
aI271725
aI38173
aI99631
aI138578
aI21870
aI197048
aI89258
aI179589
aI199336
aI248103
aI263364
aI286906
aI281362
aI157448
aI367009
aI181455
aI285242
aI250096
aI116431
aI269410
aI46240
aI192472
aI228640
aI268546
aI80093
aI336305
aI118249
aI296277
aI383292
aI100695
aI312863
aI218987
aI273486
aI62016
aI129247
aI88115
aI301501
aI393021
aI3526
aI362318
aI128557
aI378531
aI113291
aI329306
aI178472
aI215486
aI26224
aI376406
aI183936
aI35055
aI223530
aI173437
aI34646
aI189834
aI156593
aI218563
aI258682
aI88420
aI184721
aI226475
aI145961
aI171514
aI88708
aI53781
aI242913
aI337080
aI7459
aI203085
aI146477
aI204371
aI201069
aI245859
aI178664
aI379858
aI147916
aI18592
aI150668
aI30862
aI288349
aI229586
aI15689
aI229097
aI22383
aI288051
aI264911
aI68280
aI154301
aI43460
aI38547
aI190488
aI15626
aI201478
aI193035
aI241563
aI331245
aI208964
aI316040
aI296760
aI304822
aI53589
aI343849
aI2879
aI193103
aI294485
aI299298
aI160314
aI282872
aI36455
aI245713
aI284788
aI378479
aI80723
aI92713
aI158129
aI294903
aI27459
aI36082
aI372043
aI230059
aI350585
aI308105
aI303105
aI126336
aI206673
aI378966
aI294260
aI368179
aI265443
aI184066
aI103900
aI219467
aI84227
aI71967
aI91440
aI39953
aI152375
aI199864
aI159377
aI372767
aI7934
aI195006
aI114613
aI126752
aI165592
aI73553
aI9240
aI219363
aI10545
aI354164
aI52506
aI11427
aI252389
aI225566
aI255778
aI103907
aI121411
aI339126
aI368774
aI190794
aI117148
aI155858
aI363903
aI341313
aI108826
aI286001
aI290764
aI319693
aI185419
aI101287
aI253065
aI66917
aI36545
aI398617
aI257717
aI280407
aI316446
aI77150
aI117829
aI74614
aI365606
aI146769
aI74174
aI7483
aI95463
aI198910
aI245079
aI128968
aI349196
aI280358
aI102314
aI146453
aI242235
aI371858
aI24264
aI16250
aI352885
aI66677
aI125971
aI148580
aI225092
aI370183
aI384373
aI370075
aI15082
aI142148
aI93122
aI324166
aI366851
aI237891
aI31364
aI310693
aI16458
aI215779
aI59778
aI20189
aI237835
aI88752
aI228363
aI159527
aI194958
aI98403
aI9673
aI121806
aI79793
aI21792
aI379185
aI5487
aI214975
aI81434
aI265124
aI246915
aI340455
aI345328
aI346576
aI126039
aI200031
aI370114
aI98842
aI140600
aI390837
aI200264
aI250020
aI351054
aI355737
aI35075
aI363446
aI216272
aI281701
aI209259
aI54032
aI389817
aI126876
aI351403
aI165401
aI373020
aI106603
aI92749
aI190384
aI284423
aI149381
aI164990
aI26417
aI16706
aI180384
aI116301
aI158982
aI180410
aI45200
aI278027
aI235768
aI181596
aI99880
aI286908
aI45595
aI144953
aI151235
aI306823
aI71433
aI284368
aI52544
aI341612
aI352509
aI94996
aI239648
aI329557
aI19535
aI314390
aI181826
aI151316
aI291382
aI251152
aI243108
aI141290
aI249733
aI319246
aI165315
aI273828
aI214382
aI313003
aI289434
aI125961
aI141167
aI111968
aI345165
aI281557
aI12626
aI44803
aI292391
aI309592
aI18418
aI46962
aI248658
aI139834
aI333753
aI279146
aI284545
aI267769
aI301643
aI367076
aI343683
aI246235
aI279229
aI140264
aI68168
aI159965
aI218684
aI371491
aI194204
aI328050
aI381469
aI73
aI126339
aI227570
aI173477
aI392096
aI117391
aI21199
aI403959
aI152743
aI152254
aI217516
aI153461
aI6267
aI194199
aI179567
aI146417
aI310751
aI185498
aI355054
aI295911
aI31152
aI318415
aI124677
aI14093
aI368180
aI188766
aI20593
aI339675
aI322271
aI57871
aI61493
aI197842
aI175595
aI256203
aI159061
aI120216
aI300144
aI156022
aI275332
aI218425
aI331733
aI379106
aI341591
aI358921
aI225774
aI400469
aI110231
aI29512
aI196241
aI87096
aI285310
aI227857
aI255368
aI336601
aI311432
aI226208
aI36156
aI252333
aI287002
aI179161
aI397088
aI14704
aI260704
aI18262
aI316466
aI235661
aI318645
aI87946
aI129276
aI229643
aI304701
aI56311
aI2531
aI71529
aI353598
aI308006
aI255084
aI164267
aI14998
aI307097
aI386122
aI267151
aI17268
aI46267
aI356808
aI287574
aI129942
aI79228
aI269812
aI129826
aI310519
aI39090
aI193093
aI251929
aI23777
aI353321
aI314711
aI386689
aI34467
aI403539
aI228663
aI187588
aI13400
aI211688
aI222592
aI4951
aI378605
aI341926
aI161554
aI314794
aI252437
aI28176
aI293221
aI353880
aI246737
aI271071
aI48899
aI270301
aI182455
aI207480
aI116159
aI164042
aI257423
aI130018
aI277668
aI335460
aI177413
aI386780
aI306702
aI18853
aI387760
aI50390
aI224108
aI402550
aI120146
aI131984
aI225188
aI291482
aI358625
aI122737
aI36843
aI88498
aI372753
aI77464
aI375825
aI340128
aI147248
aI139967
aI348288
aI34895
aI55596
aI189060
aI393022
aI121057
aI222776
aI195925
aI47540
aI26577
aI225271
aI276519
aI47630
aI23304
aI363281
aI204664
aI274149
aI327901
aI148559
aI193118
aI75038
aI211909
aI136216
aI11453
aI301589
aI26380
aI300473
aI36149
aI336827
aI377813
aI96293
aI359033
aI387669
aI39295
aI145920
aI234681
aI85319
aI54116
aI303515
aI280602
aI130644
aI46076
aI239053
aI124229
aI27715
aI334871
aI71387
aI33844
aI57081
aI159506
aI235126
aI389322
aI25763
aI394416
aI288725
aI240134
aI161017
aI39653
aI60805
aI247608
aI364227
aI152718
aI182982
aI221599
aI281068
aI195647
aI155797
aI386469
aI245581
aI127571
aI142249
aI139822
aI7846
aI133723
aI244713
aI197795
aI313297
aI334483
aI213268
aI26773
aI189156
aI79629
aI7403
aI382904
aI244525
aI172611
aI59883
aI272729
aI164133
aI97731
aI329196
aI222781
aI257440
aI14725
aI102827
aI262112
aI383527
aI33398
aI358366
aI44540
aI370681
aI131026
aI155164
aI57408
aI234554
aI168620
aI349919
aI372812
aI384678
aI95361
aI154560
aI35907
aI305053
aI314693
aI32714
aI205423
aI315328
aI190302
aI79030
aI164891
aI249273
aI387507
aI159530
aI170615
aI376804
aI365959
aI267951
aI75795
aI51790
aI112556
aI115429
aI128573
aI373611
aI126206
aI17564
aI332019
aI302885
aI104900
aI303720
aI60159
aI14262
aI344748
aI49175
aI66928
aI232912
aI386394
aI270936
aI270668
aI234757
aI61150
aI379843
aI292002
aI128506
aI22083
aI309951
aI171916
aI194682
aI223879
aI168218
aI272850
aI208611
aI59085
aI32509
aI200158
aI45298
aI118335
aI189679
aI345383
aI49727
aI5516
aI44489
aI6314
aI3130
aI337330
aI236849
aI397598
aI277250
aI239319
aI381492
aI316371
aI265127
aI240758
aI40104
aI165334
aI63037
aI171146
aI266072
aI368267
aI44086
aI41891
aI337233
aI143316
aI90676
aI320382
aI24425
aI262332
aI206539
aI219980
aI3139
aI209718
aI216324
aI313242
aI277134
aI119809
aI294047
aI307588
aI18964
aI118382
aI292759
aI319984
aI355322
aI130250
aI32556
aI352987
aI189205
aI177251
aI209069
aI174830
aI369871
aI50501
aI279880
aI147563
aI325385
aI194165
aI345760
aI286014
aI129181
aI157056
aI256561
aI280979
aI222846
aI222173
aI229124
aI21001
aI312488
aI341428
aI244045
aI129192
aI10791
aI163954
aI24079
aI161831
aI92826
aI268103
aI311832
aI33322
aI361970
aI179394
aI114864
aI215
aI191480
aI251051
aI232368
aI18062
aI48833
aI171528
aI380180
aI274715
aI267112
aI213674
aI30781
aI12288
aI266671
aI322721
aI328551
aI371737
aI35720
aI284999
aI77852
aI157258
aI225949
aI270921
aI226261
aI207670
aI171721
aI270026
aI185233
aI301327
aI89143
aI2048
aI77256
aI168248
aI29551
aI123382
aI320777
aI248621
aI99404
aI315232
aI229812
aI13235
aI401196
aI248561
aI92531
aI315627
aI40759
aI236238
aI167104
aI287613
aI24009
aI380929
aI351349
aI79525
aI389709
aI229560
aI244518
aI1467
aI88512
aI291533
aI131566
aI293711
aI29260
aI134855
aI312475
aI121063
aI387742
aI387682
aI18330
aI315705
aI184218
aI148351
aI80546
aI371182
aI33339
aI231697
aI162257
aI151709
aI255371
aI301969
aI311808
aI183043
aI148645
aI308882
aI311542
aI365803
aI60967
aI377897
aI131005
aI343900
aI74709
aI273313
aI402770
aI68155
aI212784
aI343377
aI239455
aI271631
aI292427
aI114192
aI349422
aI282253
aI356938
aI95064
aI195715
aI129293
aI339382
aI45480
aI217490
aI302807
aI355704
aI20784
aI1850
aI87461
aI316001
aI164826
aI214794
aI141387
aI26175
aI146302
aI126068
aI191155
aI132862
aI391866
aI92221
aI292559
aI148485
aI60131
aI110264
aI114357
aI9393
aI335763
aI98451
aI175366
aI56107
aI80958
aI234933
aI30986
aI309710
aI291327
aI151193
aI338539
aI5087
aI254093
aI15389
aI361912
aI286269
aI276044
aI257990
aI276441
aI180523
aI269936
aI377228
aI305565
aI398351
aI260974
aI35222
aI307815
aI157720
aI67622
aI279013
aI102778
aI247449
aI65833
aI189380
aI401515
aI146927
aI396038
aI261071
aI188291
aI321984
aI176045
aI116432
aI77291
aI188702
aI287393
aI369146
aI320276
aI396197
aI338049
aI664
aI315552
aI205894
aI182461
aI279867
aI131962
aI327935
aI389918
aI396543
aI275827
aI336594
aI281054
aI64835
aI54484
aI296414
aI291239
aI20782
aI384064
aI220206
aI321637
aI231553
aI312870
aI382411
aI71543
aI316999
aI13861
aI309972
aI261011
aI176177
aI390436
aI118674
aI142175
aI357806
aI274991
aI290098
aI394106
aI275894
aI76269
aI260258
aI166169
aI238987
aI30694
aI396944
aI253462
aI108187
aI149323
aI149906
aI193844
aI277315
aI293478
aI188786
aI50504
aI50027
aI98618
aI72487
aI35683
aI288961
aI219368
aI195098
aI203867
aI276254
aI360568
aI295266
aI278114
aI296748
aI209044
aI240417
aI266996
aI44819
aI213392
aI303358
aI84333
aI86073
aI244505
aI73679
aI33540
aI203561
aI259884
aI89484
aI118450
aI173575
aI75024
aI156147
aI128575
aI302509
aI365498
aI401294
aI171878
aI192298
aI301112
aI98041
aI97884
aI189617
aI111014
aI126558
aI20627
aI294689
aI120427
aI341061
aI142989
aI29626
aI216256
aI135668
aI391553
aI403770
aI99910
aI354063
aI165772
aI368466
aI293044
aI65482
aI72819
aI275630
aI120030
aI18044
aI349548
aI98505
aI325732
aI211479
aI32930
aI22652
aI307824
aI42105
aI294999
aI250905
aI319502
aI287282
aI194020
aI256137
aI27471
aI238617
aI149458
aI98224
aI378749
aI190011
aI61110
aI48675
aI117358
aI347626
aI365147
aI59406
aI263881
aI137772
aI58780
aI189193
aI163686
aI313775
aI97238
aI210552
aI295883
aI92998
aI6783
aI335600
aI337399
aI327317
aI381516
aI146959
aI29167
aI331109
aI118416
aI198983
aI61991
aI123815
aI327041
aI255639
aI238457
aI111563
aI25822
aI218093
aI252366
aI223271
aI222852
aI18058
aI59367
aI59900
aI349907
aI310426
aI134004
aI397616
aI306004
aI395514
aI37198
aI35267
aI339505
aI144942
aI103874
aI269758
aI324563
aI62524
aI182695
aI184116
aI355731
aI33917
aI362578
aI192179
aI150280
aI21370
aI270167
aI27368
aI207372
aI36528
aI135151
aI65016
aI187894
aI273797
aI309426
aI293521
aI59469
aI383264
aI205738
aI178026
aI386832
aI399936
aI5678
aI139157
aI69462
aI366322
aI114531
aI355612
aI60589
aI251343
aI204334
aI247798
aI102793
aI249440
aI96872
aI247826
aI235364
aI36644
aI193943
aI271472
aI4004
aI242500
aI215832
aI62554
aI105680
aI190188
aI230492
aI348649
aI167337
aI223966
aI66046
aI13331
aI139101
aI11822
aI259420
aI4304
aI183766
aI348809
aI298595
aI77835
aI37556
aI158068
aI145636
aI368792
aI102525
aI241912
aI297290
aI48311
aI220487
aI344586
aI260344
aI290262
aI5182
aI85322
aI323118
aI360852
aI74193
aI121243
aI59453
aI198227
aI200490
aI20982
aI38608
aI158949
aI171133
aI105883
aI81190
aI198622
aI124368
aI187313
aI131842
aI70060
aI336688
aI329681
aI290538
aI289995
aI351773
aI305660
aI346138
aI104694
aI164668
aI392219
aI135457
aI382550
aI6152
aI16159
aI20989
aI120671
aI31848
aI402747
aI122602
aI228116
aI118782
aI247898
aI172371
aI54686
aI174346
aI184790
aI119299
aI256381
aI38424
aI130701
aI291676
aI20916
aI195393
aI336205
aI390209
aI80589
aI328489
aI175073
aI21953
aI323571
aI170547
aI263310
aI275187
aI222547
aI109781
aI365776
aI376728
aI336036
aI62779
aI38074
aI41892
aI187892
aI351975
aI45145
aI301046
aI331540
aI126655
aI318906
aI248094
aI352270
aI28379
aI195662
aI399946
aI243889
aI220314
aI30814
aI237182
aI277314
aI197174
aI54921
aI346295
aI28748
aI235839
aI217415
aI16457
aI200135
aI256410
aI76344
aI350219
aI5873
aI283783
aI137850
aI30277
aI195111
aI371125
aI80241
aI321813
aI151437
aI240351
aI43045
aI369703
aI293886
aI98507
aI142555
aI48992
aI224036
aI126509
aI182369
aI189258
aI394258
aI342499
aI50138
aI19539
aI282705
aI283078
aI236678
aI324203
aI359332
aI286181
aI150167
aI393187
aI30910
aI30464
aI368634
aI88494
aI206649
aI96154
aI397802
aI165031
aI224325
aI49361
aI102550
aI165881
aI47589
aI361916
aI242931
aI113968
aI187959
aI352821
aI172779
aI372183
aI134379
aI222232
aI332506
aI70283
aI82992
aI204500
aI226560
aI39182
aI46699
aI364177
aI370974
aI205176
aI278213
aI340514
aI128843
aI199718
aI364222
aI260394
aI345642
aI395212
aI53909
aI104483
aI288913
aI111301
aI78207
aI344957
aI1259
aI190707
aI258725
aI401250
aI154462
aI297318
aI113132
aI128146
aI260870
aI125589
aI304682
aI114569
aI350408
aI308277
aI23944
aI303932
aI105660
aI286752
aI241506
aI129822
aI7844
aI284396
aI359210
aI204227
aI40367
aI61797
aI118701
aI308714
aI300177
aI163548
aI238156
aI114665
aI96306
aI154980
aI215190
aI383932
aI145597
aI221711
aI284645
aI223075
aI160041
aI312847
aI256673
aI202512
aI275267
aI65423
aI382595
aI215356
aI116813
aI171422
aI205667
aI146287
aI368512
aI3865
aI163863
aI220086
aI398654
aI317734
aI342937
aI389276
aI316175
aI127254
aI352614
aI196926
aI205427
aI143910
aI84128
aI150506
aI4199
aI173968
aI206993
aI17281
aI246048
aI339666
aI365003
aI289686
aI51802
aI22054
aI241597
aI356378
aI78173
aI198879
aI137977
aI232582
aI252707
aI75178
aI297365
aI88897
aI74059
aI151728
aI276241
aI198179
aI312470
aI304252
aI146449
aI403171
aI3107
aI165771
aI254859
aI73229
aI118074
aI375246
aI157633
aI11232
aI382493
aI121647
aI315250
aI180425
aI331
aI118501
aI79971
aI96258
aI269310
aI274838
aI37688
aI28182
aI192049
aI145175
aI133659
aI323768
aI112069
aI64316
aI32499
aI269804
aI125459
aI157971
aI143478
aI265323
aI77707
aI213417
aI108010
aI270910
aI205859
aI180246
aI250780
aI150162
aI329028
aI75348
aI314120
aI108847
aI263981
aI357671
aI7105
aI127617
aI231130
aI129243
aI365563
aI181604
aI12684
aI335053
aI135742
aI400600
aI218737
aI362113
aI38122
aI160581
aI235554
aI131304
aI392623
aI287770
aI98238
aI145055
aI343767
aI181255
aI382332
aI266017
aI188955
aI285327
aI115133
aI323164
aI296142
aI43928
aI66395
aI312633
aI29107
aI193174
aI96170
aI116040
aI274902
aI58167
aI249090
aI401559
aI11004
aI159470
aI61248
aI66451
aI352502
aI5592
aI140073
aI180472
aI260982
aI399489
aI216859
aI25013
aI210943
aI306990
aI191411
aI43812
aI305400
aI316544
aI241371
aI194
aI69349
aI199285
aI201998
aI373761
aI97824
aI108142
aI172863
aI383885
aI125393
aI64081
aI119669
aI224296
aI301043
aI334807
aI239657
aI61721
aI375793
aI119258
aI56949
aI292709
aI176638
aI301277
aI281488
aI127918
aI41960
aI381416
aI270134
aI110025
aI39840
aI127461
aI117370
aI224928
aI299567
aI208547
aI8581
aI26706
aI308638
aI279381
aI335157
aI276490
aI100280
aI9086
aI190993
aI201163
aI171688
aI306524
aI208814
aI34449
aI362245
aI28674
aI133431
aI322065
aI167722
aI101639
aI264858
aI261269
aI345650
aI172612
aI175424
aI149390
aI319780
aI68744
aI297046
aI192024
aI179396
aI2848
aI328410
aI392465
aI185045
aI373461
aI345083
aI126035
aI307466
aI18252
aI234935
aI36161
aI336056
aI249979
aI122242
aI334406
aI32259
aI259513
aI13388
aI84315
aI214238
aI301610
aI132358
aI24770
aI49537
aI89133
aI32559
aI156014
aI391858
aI393477
aI206038
aI142312
aI208321
aI398188
aI248911
aI242581
aI294739
aI369721
aI372348
aI353534
aI368121
aI308531
aI27674
aI350244
aI48446
aI4225
aI184843
aI48991
aI178271
aI343784
aI297571
aI391394
aI165433
aI339425
aI109930
aI98735
aI199228
aI32598
aI231888
aI403073
aI203591
aI299723
aI354547
aI165479
aI395446
aI291983
aI318986
aI10058
aI333204
aI400009
aI388719
aI82130
aI302353
aI157418
aI241781
aI283174
aI316097
aI376267
aI126595
aI274645
aI211114
aI343945
aI361324
aI403935
aI107378
aI4870
aI95567
aI222791
aI348488
aI395215
aI145191
aI352971
aI125553
aI211089
aI199000
aI386293
aI225191
aI394602
aI219201
aI136306
aI223415
aI399325
aI264547
aI211587
aI239025
aI254627
aI46854
aI34937
aI151913
aI134599
aI277302
aI72363
aI88859
aI133194
aI7998
aI23189
aI10841
aI73894
aI235116
aI225027
aI349481
aI276925
aI321077
aI316450
aI352913
aI217357
aI356593
aI38722
aI78763
aI370133
aI40891
aI238976
aI388955
aI302152
aI16318
aI371112
aI352881
aI289764
aI209424
aI377924
aI145346
aI386872
aI323960
aI165721
aI353143
aI320084
aI191337
aI154987
aI176016
aI364704
aI210156
aI346437
aI42849
aI316010
aI171682
aI74050
aI371715
aI171970
aI218198
aI22222
aI149370
aI87971
aI246176
aI293102
aI387097
aI360236
aI391461
aI157589
aI84999
aI299300
aI252296
aI70638
aI173536
aI292229
aI157431
aI51142
aI123871
aI239866
aI337762
aI333981
aI122723
aI58993
aI142168
aI324436
aI186096
aI39758
aI385156
aI149213
aI346868
aI117541
aI58548
aI125605
aI32536
aI163609
aI358721
aI191754
aI120092
aI169561
aI297553
aI179404
aI383115
aI287709
aI131442
aI281618
aI216321
aI104432
aI315722
aI305007
aI245185
aI342013
aI47764
aI31778
aI372545
aI19578
aI72410
aI2472
aI56342
aI380875
aI275210
aI248749
aI198378
aI167002
aI134774
aI242688
aI320155
aI31303
aI4697
aI328765
aI290578
aI195636
aI122728
aI391155
aI181508
aI177025
aI55624
aI259073
aI232124
aI37130
aI132051
aI8487
aI153549
aI62564
aI23394
aI376368
aI113257
aI175004
aI91376
aI225940
aI125973
aI31824
aI235862
aI104116
aI331818
aI57190
aI385630
aI392332
aI287047
aI76296
aI298369
aI30804
aI356067
aI374174
aI215290
aI252936
aI21859
aI59313
aI367896
aI161476
aI213312
aI205316
aI45098
aI93626
aI401698
aI218225
aI195877
aI7534
aI230729
aI400937
aI64239
aI209814
aI358096
aI237742
aI127967
aI200248
aI72317
aI221774
aI152875
aI233460
aI107283
aI392367
aI145850
aI116371
aI357775
aI310123
aI344362
aI346762
aI271841
aI351040
aI256846
aI342810
aI79288
aI316977
aI335219
aI112070
aI384686
aI57744
aI263098
aI53835
aI361679
aI210897
aI382204
aI155014
aI322052
aI344454
aI203203
aI308074
aI191314
aI204586
aI137323
aI41621
aI73651
aI56453
aI94573
aI158820
aI322720
aI37771
aI27896
aI371899
aI272883
aI81513
aI230596
aI240415
aI124989
aI273974
aI379832
aI10686
aI185686
aI84675
aI50199
aI173773
aI399456
aI19047
aI113499
aI2225
aI356429
aI39698
aI220023
aI171280
aI273251
aI205322
aI400497
aI165081
aI156897
aI342285
aI26121
aI72522
aI161555
aI260320
aI336417
aI187143
aI328263
aI141395
aI168814
aI394181
aI308977
aI347391
aI112426
aI150906
aI360931
aI236543
aI224341
aI35562
aI202064
aI112931
aI221216
aI136209
aI300274
aI115297
aI67772
aI249568
aI308716
aI194211
aI236816
aI98689
aI384487
aI365044
aI362575
aI108282
aI77839
aI21297
aI108307
aI90064
aI241607
aI215935
aI216361
aI123756
aI79376
aI240812
aI35626
aI83375
aI278357
aI148534
aI106165
aI194974
aI240532
aI80925
aI95355
aI99593
aI65844
aI142424
aI35148
aI271629
aI364094
aI395281
aI39652
aI69817
aI364118
aI22206
aI224155
aI159231
aI393209
aI236060
aI6265
aI308748
aI390882
aI95488
aI180941
aI360374
aI9427
aI397129
aI75947
aI99630
aI221
aI103674
aI351188
aI332127
aI373154
aI259631
aI260727
aI326169
aI314778
aI318189
aI106275
aI329718
aI181296
aI211694
aI129314
aI31674
aI187861
aI347202
aI343211
aI192026
aI64375
aI127716
aI210957
aI69322
aI267669
aI385760
aI66337
aI231630
aI240243
aI324703
aI101486
aI268965
aI12504
aI332640
aI316287
aI91778
aI384328
aI120742
aI175227
aI251488
aI74740
aI332959
aI72816
aI51872
aI377300
aI373525
aI354105
aI163086
aI188423
aI195555
aI129771
aI370674
aI309013
aI362556
aI122995
aI392621
aI195793
aI234223
aI385868
aI181543
aI47638
aI307837
aI137820
aI378223
aI299046
aI133470
aI75755
aI40406
aI316717
aI151085
aI77678
aI1451
aI162105
aI328871
aI403189
aI376078
aI29299
aI8867
aI382765
aI127849
aI71233
aI312196
aI214614
aI211141
aI225202
aI15889
aI104940
aI370142
aI229462
aI183014
aI211385
aI65673
aI85187
aI203968
aI134265
aI230401
aI97121
aI323665
aI282458
aI257187
aI78595
aI258267
aI98310
aI297377
aI118225
aI87467
aI78346
aI336839
aI170837
aI99354
aI38536
aI336104
aI41766
aI350436
aI223962
aI244666
aI381102
aI1314
aI373758
aI119436
aI97925
aI228544
aI245174
aI374536
aI219273
aI337832
aI28305
aI99978
aI290979
aI284053
aI382288
aI77042
aI114990
aI12275
aI282891
aI328549
aI161777
aI351147
aI230618
aI76495
aI301102
aI35476
aI49411
aI20965
aI334073
aI218277
aI253193
aI296229
aI131594
aI10647
aI125674
aI32200
aI38290
aI210051
aI196403
aI91878
aI104972
aI88777
aI391721
aI240823
aI402881
aI360257
aI71988
aI402680
aI152601
aI216542
aI194195
aI297594
aI104333
aI60332
aI114987
aI260825
aI284612
aI61785
aI282533
aI83320
aI382637
aI263245
aI132423
aI266139
aI114464
aI113203
aI317372
aI196805
aI195147
aI181399
aI267539
aI356995
aI138305
aI276121
aI36838
aI238321
aI347351
aI388414
aI308482
aI22567
aI121209
aI300604
aI397047
aI185900
aI294621
aI281547
aI35915
aI245522
aI6997
aI202591
aI401386
aI10618
aI71415
aI329978
aI351386
aI45100
aI118372
aI309089
aI335960
aI389576
aI82529
aI251191
aI48334
aI144281
aI7029
aI226153
aI314327
aI366989
aI255704
aI295696
aI296312
aI305048
aI247911
aI300670
aI221708
aI42183
aI314202
aI86826
aI303865
aI219534
aI249901
aI67703
aI353415
aI1195
aI220430
aI158131
aI57070
aI84324
aI323315
aI122104
aI131117
aI155178
aI330757
aI324046
aI233687
aI31609
aI367938
aI245146
aI109556
aI382159
aI362894
aI390887
aI102271
aI362455
aI139270
aI181808
aI353203
aI212148
aI18594
aI336249
aI318089
aI20584
aI324495
aI341701
aI229176
aI235979
aI90993
aI321514
aI11344
aI386914
aI91799
aI57014
aI32817
aI61943
aI385994
aI256597
aI221989
aI300550
aI235418
aI210954
aI113538
aI50566
aI131374
aI251788
aI110306
aI303500
aI244207
aI394639
aI324431
aI265099
aI343452
aI258096
aI293877
aI129082
aI261763
aI71002
aI203640
aI237786
aI402461
aI265840
aI287555
aI329318
aI322925
aI86417
aI212420
aI350616
aI72571
aI367525
aI66835
aI270129
aI133518
aI266953
aI41304
aI176415
aI127065
aI127453
aI373211
aI369545
aI177553
aI239411
aI333005
aI166470
aI22694
aI131136
aI309713
aI277082
aI69117
aI372459
aI353984
aI311651
aI89252
aI2165
aI117895
aI386846
aI330568
aI86334
aI247755
aI143378
aI313077
aI326979
aI118508
aI35996
aI392378
aI62252
aI177259
aI349774
aI186607
aI198592
aI24611
aI305968
aI283071
aI371836
aI126636
aI220323
aI400487
aI287996
aI342627
aI248878
aI214015
aI162403
aI190085
aI281766
aI320563
aI334454
aI350171
aI204799
aI225228
aI216964
aI315670
aI335350
aI212942
aI235711
aI81830
aI287544
aI153233
aI298644
aI108073
aI81617
aI224268
aI283551
aI228032
aI81754
aI43789
aI46993
aI242028
aI283483
aI14383
aI222178
aI167618
aI399852
aI265352
aI130979
aI381482
aI375916
aI254507
aI6638
aI37745
aI126883
aI361323
aI140546
aI23895
aI334812
aI265852
aI239315
aI143153
aI298731
aI15042
aI154822
aI57529
aI179989
aI16486
aI18562
aI116597
aI166786
aI2122
aI338691
aI400841
aI395727
aI152854
aI227225
aI97975
aI7629
aI365574
aI1175
aI115564
aI360813
aI216088
aI113613
aI159533
aI286131
aI231057
aI403689
aI361395
aI366372
aI378899
aI197292
aI53664
aI341680
aI199199
aI221691
aI170940
aI18175
aI184117
aI36371
aI327076
aI32619
aI366139
aI257962
aI68712
aI216654
aI225519
aI255636
aI70533
aI102786
aI237453
aI9944
aI39669
aI100334
aI223442
aI241871
aI138834
aI41896
aI82792
aI98767
aI215878
aI36631
aI322114
aI8510
aI64252
aI108041
aI117227
aI56130
aI112205
aI293208
aI353722
aI290069
aI244651
aI213863
aI305482
aI243129
aI211824
aI208909
aI378411
aI360968
aI280282
aI140188
aI136285
aI264903
aI205758
aI113795
aI335655
aI304747
aI168724
aI131868
aI85630
aI50763
aI129566
aI235949
aI399662
aI151337
aI68610
aI206906
aI294987
aI200254
aI153633
aI63653
aI185677
aI47862
aI368456
aI252947
aI401929
aI366288
aI392707
aI173531
aI238423
aI264559
aI240753
aI32912
aI94198
aI113810
aI287855
aI189748
aI11907
aI147174
aI28222
aI127564
aI89014
aI242026
aI165766
aI233726
aI6037
aI293003
aI310374
aI177002
aI390128
aI267766
aI23620
aI224406
aI106329
aI14124
aI391204
aI316715
aI199539
aI316436
aI344637
aI268146
aI168242
aI216364
aI359965
aI75587
aI6551
aI400597
aI7576
aI168972
aI376946
aI5055
aI250910
aI35000
aI325879
aI299398
aI207091
aI235243
aI248378
aI244576
aI322079
aI72385
aI378947
aI347762
aI371014
aI178493
aI115021
aI229505
aI129537
aI102435
aI123601
aI63143
aI22828
aI72039
aI271462
aI195336
aI304215
aI126778
aI113530
aI314099
aI229781
aI335200
aI314164
aI32016
aI17589
aI70961
aI169619
aI202999
aI93731
aI58644
aI105759
aI386004
aI88262
aI329187
aI53417
aI129376
aI172117
aI19414
aI240112
aI136519
aI70797
aI230111
aI232438
aI32278
aI38778
aI382017
aI387530
aI251
aI337701
aI61158
aI161769
aI314666
aI30573
aI374364
aI265835
aI100552
aI370192
aI10863
aI3765
aI375585
aI340125
aI210186
aI371695
aI94344
aI22972
aI220489
aI402723
aI93566
aI372954
aI127038
aI348028
aI71154
aI23676
aI331433
aI262028
aI295919
aI209465
aI94072
aI109020
aI262626
aI215445
aI229741
aI64841
aI143257
aI35164
aI352423
aI279799
aI218926
aI267201
aI291847
aI213351
aI233173
aI5049
aI19625
aI277479
aI49227
aI129832
aI320516
aI207927
aI51092
aI27492
aI146331
aI303849
aI62769
aI359824
aI198181
aI98572
aI265007
aI341306
aI190750
aI359951
aI391971
aI72218
aI141463
aI398283
aI156947
aI308527
aI103779
aI245944
aI331637
aI194509
aI108457
aI30591
aI330143
aI92658
aI381914
aI347076
aI122517
aI119504
aI21598
aI265446
aI47182
aI363648
aI108630
aI167456
aI308463
aI251595
aI262511
aI250670
aI315555
aI338543
aI125277
aI24319
aI58778
aI10236
aI204612
aI280851
aI373698
aI345424
aI82448
aI65343
aI247463
aI270421
aI73512
aI201936
aI87198
aI165045
aI38152
aI368161
aI101355
aI185001
aI403005
aI112911
aI218859
aI253654
aI93654
aI305560
aI308799
aI25774
aI187720
aI331226
aI255147
aI148978
aI155135
aI320158
aI282395
aI305688
aI308982
aI142369
aI165498
aI360796
aI278670
aI390591
aI138291
aI34713
aI363658
aI220936
aI166209
aI202240
aI232665
aI297813
aI10945
aI372538
aI361762
aI363591
aI347899
aI127087
aI368648
aI259771
aI26765
aI356207
aI168216
aI229211
aI14544
aI42474
aI390317
aI159801
aI393639
aI329752
aI354033
aI220231
aI356796
aI236478
aI358588
aI227628
aI93687
aI272681
aI261212
aI254009
aI216905
aI162333
aI184317
aI381875
aI40033
aI401052
aI44488
aI243524
aI226254
aI331938
aI16578
aI117601
aI236036
aI54643
aI284852
aI283513
aI331662
aI235460
aI126426
aI32698
aI143318
aI259117
aI157062
aI267761
aI251523
aI274557
aI346572
aI34638
aI116692
aI88216
aI63104
aI69980
aI290316
aI281905
aI90295
aI97966
aI267378
aI4135
aI330579
aI290022
aI21885
aI315179
aI312635
aI340272
aI100002
aI39233
aI336821
aI265716
aI148779
aI98363
aI195834
aI242196
aI205011
aI399478
aI269099
aI403937
aI311748
aI286804
aI353830
aI333215
aI136118
aI283884
aI70190
aI8287
aI339411
aI369928
aI8034
aI134880
aI348920
aI245022
aI230764
aI355671
aI59302
aI32318
aI51661
aI356728
aI292404
aI368252
aI79042
aI301897
aI341005
aI117954
aI185437
aI168026
aI114319
aI69585
aI70637
aI109734
aI353924
aI376966
aI401897
aI74632
aI336889
aI69255
aI90666
aI360942
aI213462
aI174077
aI214479
aI78660
aI195121
aI245030
aI391799
aI375501
aI234899
aI374592
aI183999
aI242749
aI142849
aI346807
aI207664
aI42698
aI161657
aI68749
aI78756
aI171420
aI398480
aI103435
aI183315
aI168920
aI394475
aI262213
aI135768
aI238328
aI111473
aI364045
aI132453
aI311850
aI205874
aI102307
aI126007
aI111814
aI256781
aI15871
aI229499
aI262141
aI295917
aI166610
aI219636
aI7522
aI50724
aI215435
aI362089
aI69722
aI127947
aI169513
aI11337
aI125811
aI89370
aI86849
aI64097
aI26216
aI213669
aI117707
aI262683
aI133516
aI120542
aI126349
aI141984
aI294833
aI203929
aI286602
aI304382
aI177833
aI310665
aI111570
aI347491
aI206000
aI83959
aI32055
aI92391
aI377974
aI206236
aI183205
aI24131
aI186057
aI310631
aI197323
aI146063
aI119652
aI342563
aI242509
aI374559
aI131624
aI234984
aI43237
aI222586
aI204797
aI201237
aI348688
aI361513
aI273656
aI134337
aI345806
aI174154
aI191294
aI80903
aI193771
aI327174
aI94715
aI380028
aI253080
aI325153
aI225521
aI389140
aI194454
aI179071
aI259476
aI205253
aI379477
aI307348
aI329691
aI275372
aI218996
aI375844
aI324260
aI141299
aI398438
aI94904
aI71641
aI151377
aI187311
aI295015
aI158813
aI399064
aI375750
aI371134
aI3187
aI162660
aI359679
aI17298
aI291302
aI1384
aI66914
aI207106
aI52306
aI189123
aI372817
aI379472
aI303862
aI291813
aI190060
aI85682
aI239845
aI74339
aI49192
aI15221
aI21798
aI61454
aI283217
aI191024
aI55516
aI111535
aI102062
aI41546
aI74102
aI57499
aI65403
aI359780
aI228962
aI300157
aI369084
aI179006
aI11562
aI42033
aI208144
aI146586
aI286282
aI384590
aI94289
aI360587
aI316988
aI247009
aI9281
aI364992
aI318461
aI207920
aI233553
aI184396
aI338326
aI377538
aI48854
aI349503
aI175619
aI288421
aI253059
aI376006
aI359276
aI196269
aI86227
aI105596
aI275004
aI573
aI80117
aI112277
aI1858
aI307279
aI204737
aI284824
aI380648
aI333539
aI45699
aI386813
aI213711
aI374377
aI92045
aI11534
aI233679
aI311755
aI207451
aI372561
aI57450
aI54158
aI100851
aI85530
aI133118
aI278346
aI67635
aI251966
aI204827
aI165208
aI388745
aI351450
aI373453
aI117525
aI55528
aI115362
aI78853
aI188965
aI288329
aI366525
aI151670
aI153956
aI58722
aI170011
aI383850
aI319245
aI398148
aI192572
aI55999
aI332399
aI312242
aI33420
aI137048
aI137293
aI108879
aI75224
aI211724
aI260469
aI332330
aI119619
aI308523
aI332000
aI1612
aI148093
aI379781
aI268787
aI350915
aI19037
aI44911
aI41127
aI265312
aI402653
aI292494
aI19585
aI393137
aI126390
aI79232
aI85932
aI203858
aI8703
aI40678
aI265433
aI236711
aI226136
aI400393
aI172040
aI161202
aI210343
aI231647
aI99808
aI351570
aI287812
aI343972
aI1696
aI356693
aI110938
aI141591
aI387404
aI149214
aI89447
aI35933
aI315303
aI188591
aI399201
aI394047
aI310286
aI294099
aI293075
aI312168
aI59007
aI302427
aI167260
aI283735
aI177807
aI169721
aI178292
aI382416
aI71381
aI170004
aI296174
aI377150
aI71464
aI394040
aI397375
aI401181
aI25980
aI53177
aI321255
aI391723
aI173020
aI192219
aI29580
aI202504
aI321751
aI79253
aI39690
aI63165
aI299505
aI142923
aI155295
aI79665
aI218493
aI385004
aI173124
aI30885
aI402202
aI111885
aI76183
aI43466
aI236579
aI127208
aI394371
aI116679
aI225930
aI325177
aI392313
aI91499
aI219885
aI133866
aI15647
aI275757
aI326406
aI385294
aI286769
aI402644
aI289084
aI288580
aI348616
aI50863
aI362600
aI328349
aI195361
aI347826
aI390707
aI265391
aI136183
aI122039
aI53598
aI40347
aI178999
aI209377
aI306388
aI189166
aI165660
aI318520
aI80240
aI390767
aI339205
aI193310
aI203655
aI30774
aI224837
aI70478
aI134517
aI305540
aI392697
aI72448
aI363099
aI94322
aI319212
aI138706
aI74555
aI25626
aI402148
aI17956
aI370478
aI55111
aI186507
aI153540
aI21071
aI34597
aI76089
aI157519
aI236917
aI167076
aI351361
aI75472
aI329574
aI112198
aI164492
aI320826
aI189762
aI72457
aI70141
aI132545
aI296557
aI264124
aI281671
aI184865
aI362126
aI149981
aI392717
aI306273
aI366936
aI158903
aI260724
aI64056
aI4256
aI128360
aI321407
aI12764
aI102451
aI81065
aI247335
aI8538
aI268908
aI70229
aI349623
aI235699
aI295855
aI389754
aI248256
aI165329
aI291565
aI259461
aI78747
aI159111
aI193257
aI402266
aI293429
aI209112
aI399798
aI73526
aI296389
aI89528
aI118137
aI226848
aI373043
aI379594
aI232933
aI284805
aI106609
aI42823
aI96884
aI198508
aI362763
aI125122
aI56493
aI222227
aI179070
aI227162
aI5965
aI51184
aI398225
aI389465
aI249629
aI128084
aI348742
aI144454
aI143957
aI293278
aI396592
aI395798
aI195554
aI273108
aI368357
aI224410
aI347006
aI63561
aI4247
aI159855
aI27861
aI348370
aI197345
aI351300
aI115433
aI363241
aI36666
aI379913
aI154277
aI11243
aI111013
aI19040
aI216205
aI61241
aI301246
aI386861
aI126302
aI218568
aI233287
aI306790
aI100047
aI217856
aI358457
aI374905
aI295592
aI121012
aI133987
aI254182
aI27203
aI70456
aI112639
aI105411
aI171897
aI32
aI367419
aI368260
aI146965
aI557
aI132704
aI284320
aI237247
aI353221
aI317599
aI4828
aI80081
aI146601
aI350710
aI8061
aI207081
aI129479
aI271753
aI79172
aI90698
aI377550
aI15717
aI45009
aI321461
aI375088
aI331632
aI30211
aI327992
aI55648
aI149329
aI105609
aI129677
aI378403
aI180193
aI2685
aI278266
aI203724
aI398507
aI95071
aI220718
aI139161
aI52809
aI49695
aI150672
aI279965
aI242562
aI46223
aI244779
aI54832
aI88574
aI42939
aI248667
aI150296
aI164833
aI50956
aI133593
aI109268
aI134188
aI323707
aI332009
aI228671
aI57216
aI188921
aI156015
aI371273
aI162008
aI113478
aI59073
aI24082
aI243085
aI190333
aI162071
aI168500
aI23679
aI101605
aI310787
aI357467
aI152338
aI358668
aI74589
aI92995
aI181500
aI207539
aI62767
aI72611
aI183411
aI216513
aI110681
aI236333
aI61044
aI197637
aI112294
aI48554
aI47588
aI349718
aI188622
aI359522
aI355438
aI235158
aI103439
aI193801
aI160849
aI354425
aI154948
aI136572
aI401015
aI154448
aI365587
aI294724
aI79425
aI315173
aI341819
aI204229
aI356962
aI87243
aI283683
aI188153
aI324207
aI117067
aI205277
aI9375
aI1418
aI123450
aI391347
aI137152
aI158666
aI180694
aI113282
aI54983
aI202488
aI381846
aI331783
aI173161
aI181945
aI5042
aI397448
aI128821
aI291188
aI251633
aI309341
aI107237
aI119403
aI15631
aI118093
aI122388
aI245306
aI266318
aI385432
aI209825
aI273997
aI391836
aI169594
aI402627
aI179258
aI395490
aI119471
aI172203
aI221518
aI338009
aI211152
aI309706
aI378110
aI208261
aI134879
aI141320
aI291403
aI316127
aI401325
aI329302
aI366864
aI387025
aI33728
aI335886
aI209073
aI250683
aI105098
aI270081
aI234804
aI305975
aI169073
aI336357
aI293453
aI200619
aI271761
aI17092
aI150432
aI20425
aI88726
aI239878
aI373185
aI219594
aI122042
aI252992
aI304638
aI218718
aI208196
aI352874
aI253908
aI154579
aI104502
aI77726
aI9870
aI253905
aI371087
aI286251
aI571
aI285286
aI106182
aI48911
aI259848
aI374019
aI15137
aI161770
aI84330
aI160851
aI35835
aI105485
aI137736
aI310836
aI136283
aI396164
aI60346
aI143510
aI327917
aI123544
aI283839
aI24277
aI275835
aI347878
aI303
aI179102
aI96534
aI137985
aI282289
aI316867
aI24268
aI3085
aI123093
aI87413
aI157588
aI241148
aI361083
aI29647
aI17317
aI245344
aI329913
aI93348
aI27540
aI68449
aI366269
aI317374
aI282981
aI10430
aI14004
aI153458
aI373257
aI253914
aI386212
aI250160
aI403435
aI97064
aI108193
aI48210
aI232727
aI102200
aI222766
aI166981
aI331072
aI210084
aI238701
aI67804
aI126973
aI291748
aI236589
aI298891
aI335314
aI352741
aI150369
aI266800
aI58837
aI181293
aI59812
aI246215
aI356615
aI363062
aI284426
aI85755
aI109432
aI209429
aI163855
aI9977
aI243932
aI29460
aI190927
aI342433
aI176345
aI11158
aI36427
aI204743
aI161720
aI279416
aI219068
aI168742
aI245252
aI355299
aI343284
aI4331
aI193012
aI379236
aI172345
aI339348
aI12543
aI250692
aI215024
aI28211
aI118908
aI61657
aI348021
aI57448
aI154265
aI368227
aI341696
aI115395
aI22865
aI388435
aI375672
aI354211
aI189100
aI77576
aI269206
aI33682
aI231850
aI370057
aI300930
aI42431
aI376195
aI83105
aI155115
aI96640
aI123312
aI138614
aI185650
aI268913
aI347142
aI358293
aI137968
aI334558
aI256486
aI306800
aI51721
aI191317
aI133968
aI210660
aI136535
aI104110
aI268752
aI243956
aI228404
aI48681
aI324787
aI237274
aI271691
aI36466
aI305084
aI337090
aI32421
aI232753
aI270938
aI223189
aI276659
aI274117
aI95570
aI350009
aI310572
aI106121
aI393535
aI121404
aI35555
aI253173
aI210443
aI53393
aI151953
aI112785
aI283689
aI66392
aI203842
aI61829
aI62740
aI17573
aI112664
aI115158
aI67138
aI1888
aI48115
aI403526
aI115165
aI313132
aI2893
aI159357
aI235988
aI186583
aI185746
aI230156
aI37913
aI195997
aI140469
aI396039
aI390624
aI178682
aI391296
aI110406
aI319398
aI45084
aI160374
aI22266
aI298753
aI61035
aI122416
aI208672
aI155054
aI28275
aI274964
aI22822
aI26395
aI208535
aI127803
aI51641
aI75630
aI205502
aI27295
aI312065
aI108431
aI195389
aI157828
aI109033
aI346201
aI217172
aI346020
aI265761
aI251052
aI144866
aI76873
aI260308
aI217284
aI336290
aI129894
aI140549
aI366701
aI111849
aI316468
aI155019
aI203425
aI127200
aI170451
aI159240
aI187552
aI296316
aI98082
aI27797
aI114756
aI250248
aI209610
aI278125
aI334245
aI142344
aI329213
aI249738
aI174872
aI247560
aI259333
aI360758
aI21374
aI120647
aI320414
aI339588
aI102263
aI77945
aI161098
aI300960
aI205820
aI275736
aI265650
aI228342
aI9153
aI375381
aI106640
aI330315
aI236808
aI348
aI41248
aI22861
aI199576
aI243381
aI277409
aI103586
aI24330
aI261727
aI241613
aI196187
aI82749
aI121782
aI4579
aI250265
aI154182
aI77778
aI166038
aI196517
aI217587
aI135684
aI252894
aI72207
aI94246
aI249886
aI193918
aI107507
aI251149
aI35899
aI208716
aI314457
aI141272
aI395453
aI72521
aI321622
aI361802
aI48843
aI248449
aI350904
aI315006
aI106104
aI170213
aI298400
aI343933
aI180756
aI153302
aI112698
aI275440
aI325417
aI296587
aI313770
aI256789
aI237628
aI318966
aI263943
aI92607
aI283711
aI213390
aI321571
aI346330
aI271707
aI192377
aI59295
aI161128
aI55672
aI205070
aI376277
aI189588
aI48927
aI262346
aI284067
aI224283
aI212959
aI19950
aI228410
aI351463
aI293172
aI203152
aI194799
aI1425
aI315188
aI379752
aI80713
aI53090
aI380049
aI193725
aI308417
aI161762
aI266067
aI74091
aI32581
aI368116
aI215208
aI71516
aI202492
aI294185
aI41608
aI137367
aI69864
aI176166
aI278131
aI192945
aI317893
aI384916
aI80200
aI337213
aI243059
aI290102
aI343567
aI398909
aI357458
aI125640
aI165140
aI58671
aI308615
aI179813
aI390449
aI393896
aI203693
aI290249
aI121371
aI378240
aI278702
aI106626
aI349038
aI169935
aI186358
aI368697
aI377557
aI70349
aI118515
aI130595
aI186893
aI389476
aI275649
aI175192
aI209658
aI287690
aI237956
aI351015
aI290823
aI120703
aI289358
aI286392
aI45064
aI22511
aI316419
aI91436
aI357764
aI395483
aI267606
aI305594
aI247185
aI152343
aI291614
aI401035
aI177360
aI14496
aI28703
aI82796
aI195306
aI244573
aI74684
aI3934
aI2234
aI294980
aI306686
aI232951
aI388032
aI296107
aI229776
aI78182
aI26150
aI18419
aI92944
aI142625
aI207839
aI74859
aI277873
aI32663
aI181980
aI17545
aI49172
aI164802
aI150250
aI172321
aI387544
aI387007
aI315047
aI350946
aI401780
aI112884
aI380373
aI66149
aI142313
aI112272
aI383813
aI214787
aI225340
aI342819
aI152549
aI344864
aI31132
aI196994
aI249244
aI181210
aI108202
aI233338
aI21605
aI47190
aI300269
aI187069
aI260069
aI363705
aI268368
aI35747
aI39255
aI33680
aI269856
aI246211
aI201443
aI189738
aI187519
aI304765
aI101688
aI62031
aI195915
aI311526
aI222535
aI154098
aI150052
aI99152
aI98046
aI274659
aI120878
aI294649
aI264182
aI116132
aI219957
aI374100
aI359071
aI351484
aI171925
aI181567
aI51668
aI4254
aI349250
aI358819
aI35710
aI234148
aI333934
aI346383
aI70170
aI112576
aI102788
aI253658
aI2780
aI39120
aI313043
aI28885
aI75781
aI219371
aI13374
aI835
aI204506
aI87325
aI164973
aI145637
aI50687
aI131848
aI240471
aI382936
aI333655
aI328526
aI160137
aI327098
aI17002
aI173780
aI304582
aI193037
aI354667
aI163068
aI164403
aI182309
aI160276
aI213624
aI274424
aI366380
aI7075
aI63674
aI169110
aI204474
aI315260
aI195078
aI154493
aI19641
aI318653
aI289903
aI581
aI326137
aI397923
aI174387
aI391964
aI238571
aI192971
aI255787
aI342241
aI83396
aI169378
aI175086
aI337686
aI347025
aI229667
aI100509
aI108811
aI321830
aI180293
aI328696
aI134535
aI168846
aI78778
aI299172
aI380714
aI248310
aI328039
aI379086
aI285755
aI32904
aI38607
aI284004
aI400056
aI243784
aI6000
aI370853
aI222282
aI265970
aI267101
aI258010
aI99022
aI113462
aI71276
aI347228
aI258572
aI154047
aI367542
aI255667
aI134727
aI141758
aI158637
aI208667
aI305857
aI21946
aI386567
aI64758
aI371239
aI306197
aI364135
aI230589
aI175636
aI318590
aI243029
aI121578
aI385548
aI393846
aI115069
aI380253
aI224019
aI129344
aI285691
aI31730
aI241820
aI296444
aI303058
aI399253
aI303062
aI288054
aI266599
aI250508
aI186966
aI210898
aI350732
aI195545
aI170963
aI393134
aI272086
aI148596
aI77392
aI147376
aI134299
aI211767
aI333478
aI264203
aI345316
aI319551
aI8726
aI144813
aI252122
aI233171
aI81204
aI6318
aI124758
aI116710
aI285479
aI88413
aI154896
aI193419
aI195894
aI308651
aI392078
aI41968
aI79429
aI208981
aI101826
aI106344
aI238082
aI265170
aI104713
aI240957
aI146128
aI336112
aI351726
aI162328
aI45568
aI120563
aI346012
aI361880
aI191018
aI123960
aI180062
aI47818
aI115636
aI18677
aI300922
aI151583
aI5973
aI92804
aI126017
aI269102
aI359470
aI390393
aI401154
aI140403
aI149734
aI168813
aI314740
aI295838
aI37886
aI25945
aI260509
aI381497
aI195888
aI243878
aI381670
aI164468
aI120874
aI114721
aI178235
aI393215
aI359967
aI176663
aI376370
aI325140
aI99505
aI189473
aI245378
aI184669
aI36052
aI141621
aI57409
aI365975
aI6682
aI316732
aI137085
aI44501
aI73217
aI393933
aI306365
aI210448
aI290164
aI72282
aI118777
aI89455
aI74917
aI185092
aI102220
aI386006
aI80852
aI71741
aI163572
aI275200
aI359785
aI290507
aI194385
aI60191
aI309885
aI129634
aI70974
aI259996
aI359904
aI50918
aI28187
aI250420
aI92252
aI101004
aI63933
aI147237
aI332350
aI343503
aI395077
aI293384
aI24848
aI362602
aI307913
aI247538
aI112925
aI222749
aI31517
aI271586
aI215293
aI272107
aI308052
aI326591
aI125626
aI93280
aI151880
aI1303
aI160168
aI208189
aI104526
aI334881
aI117817
aI142735
aI17808
aI33444
aI171627
aI189218
aI173017
aI327374
aI122752
aI302169
aI318426
aI241664
aI89371
aI219384
aI158900
aI126049
aI394076
aI323850
aI61332
aI40648
aI375557
aI115958
aI169991
aI281005
aI158174
aI218021
aI286680
aI143280
aI154154
aI82605
aI12767
aI172484
aI77550
aI54561
aI177100
aI286875
aI287056
aI63484
aI54097
aI351228
aI315478
aI380389
aI226354
aI191220
aI381438
aI363583
aI196668
aI155052
aI28408
aI35162
aI211732
aI359605
aI250149
aI302907
aI389124
aI148269
aI380440
aI191449
aI117998
aI257410
aI273301
aI104089
aI156854
aI169044
aI311861
aI71286
aI5062
aI81687
aI58015
aI101230
aI132402
aI170019
aI1417
aI180088
aI128643
aI167619
aI62294
aI195380
aI345670
aI89024
aI298239
aI383654
aI215846
aI326449
aI363041
aI401487
aI332044
aI262362
aI397192
aI386999
aI313598
aI149584
aI344283
aI123993
aI297635
aI230719
aI383143
aI156915
aI261956
aI133296
aI7508
aI162893
aI294366
aI152092
aI396097
aI170565
aI120138
aI151277
aI266381
aI163479
aI115480
aI253733
aI74822
aI93862
aI394836
aI379971
aI201765
aI188297
aI100735
aI338090
aI357323
aI306988
aI87816
aI318863
aI280511
aI275339
aI362849
aI367797
aI324075
aI351822
aI49634
aI281271
aI50640
aI321703
aI164540
aI118695
aI305304
aI158574
aI168150
aI331195
aI107415
aI276621
aI320731
aI379229
aI189072
aI247812
aI249461
aI202447
aI269724
aI254128
aI158528
aI201365
aI167383
aI155380
aI133734
aI252441
aI33743
aI236200
aI390824
aI55311
aI50839
aI199752
aI161732
aI387606
aI40658
aI321588
aI129106
aI382057
aI221204
aI207773
aI382334
aI383891
aI104898
aI214391
aI146218
aI187366
aI142483
aI140474
aI29738
aI212760
aI4517
aI151888
aI43300
aI67800
aI184051
aI147490
aI121852
aI97915
aI205328
aI92177
aI174314
aI238173
aI227978
aI297267
aI214232
aI319534
aI293144
aI365483
aI194530
aI117716
aI265522
aI136237
aI340527
aI305285
aI133414
aI397218
aI123768
aI171623
aI323578
aI219006
aI347433
aI1399
aI91061
aI108854
aI358513
aI239705
aI396011
aI26149
aI40174
aI176700
aI199045
aI126023
aI212926
aI153537
aI236242
aI379282
aI264420
aI373664
aI345899
aI353368
aI137727
aI210843
aI47239
aI51368
aI221481
aI352312
aI99145
aI378699
aI368407
aI203959
aI56894
aI321290
aI348307
aI361309
aI97230
aI235036
aI17671
aI278904
aI251059
aI358150
aI321426
aI180209
aI74124
aI98910
aI47068
aI108338
aI10951
aI71339
aI385500
aI215422
aI239351
aI318714
aI70288
aI287034
aI104929
aI333071
aI195867
aI264732
aI223787
aI248694
aI57258
aI268776
aI88699
aI333996
aI400067
aI234568
aI300192
aI73691
aI24262
aI171839
aI82299
aI55923
aI204608
aI315945
aI64534
aI64714
aI131464
aI177804
aI2480
aI207369
aI122910
aI360532
aI96417
aI65142
aI199262
aI1062
aI330434
aI240998
aI74396
aI303956
aI53320
aI360391
aI267253
aI210251
aI115097
aI146731
aI109292
aI208044
aI403514
aI48813
aI46015
aI315053
aI208162
aI346970
aI359553
aI290600
aI292369
aI120270
aI314410
aI177336
aI111099
aI295707
aI84163
aI285664
aI176134
aI365860
aI33048
aI14676
aI224087
aI193549
aI217550
aI105716
aI275061
aI54794
aI137611
aI241982
aI402362
aI149064
aI246021
aI50988
aI241033
aI107220
aI87437
aI289347
aI36837
aI258492
aI175401
aI82024
aI219774
aI5139
aI376629
aI84391
aI138558
aI369576
aI13830
aI212115
aI35092
aI238931
aI275643
aI368218
aI137240
aI93454
aI139134
aI371103
aI388606
aI195508
aI308420
aI242068
aI8939
aI359792
aI164213
aI244216
aI59279
aI229289
aI42319
aI105244
aI391645
aI210564
aI184729
aI334523
aI296954
aI335095
aI59737
aI109530
aI156489
aI157666
aI156862
aI260564
aI340882
aI379563
aI119657
aI19884
aI163254
aI270672
aI266116
aI73680
aI390307
aI165491
aI193489
aI328057
aI20616
aI21895
aI85033
aI159713
aI140283
aI243757
aI366486
aI214618
aI39916
aI208829
aI136189
aI273232
aI130883
aI258020
aI144245
aI251558
aI337708
aI70564
aI167010
aI338612
aI288338
aI172142
aI17457
aI102601
aI133661
aI124342
aI91548
aI165950
aI36535
aI21338
aI26627
aI154285
aI62390
aI363848
aI186223
aI350546
aI403108
aI381551
aI171297
aI345417
aI303991
aI203647
aI96974
aI169874
aI110855
aI271408
aI125119
aI367394
aI326170
aI174896
aI379270
aI394740
aI106836
aI300583
aI39513
aI141569
aI122550
aI62099
aI203037
aI146598
aI286037
aI107681
aI172954
aI295962
aI373463
aI152810
aI359177
aI128543
aI127612
aI353735
aI309922
aI63950
aI342486
aI95642
aI286768
aI124379
aI195811
aI83752
aI343938
aI39168
aI239541
aI324665
aI87473
aI328239
aI280289
aI258998
aI158987
aI254456
aI315651
aI103144
aI22221
aI10869
aI270951
aI189521
aI34225
aI205878
aI171664
aI261725
aI139286
aI243577
aI334292
aI315419
aI234453
aI259019
aI320445
aI249662
aI192607
aI70807
aI329727
aI385361
aI94070
aI66100
aI269070
aI308945
aI179563
aI51178
aI223168
aI113623
aI69702
aI31382
aI214858
aI251806
aI210839
aI166041
aI235031
aI183604
aI245972
aI259331
aI34629
aI190026
aI271111
aI98917
aI84872
aI283754
aI248553
aI189126
aI279411
aI333635
aI366568
aI364499
aI105451
aI343075
aI363286
aI323289
aI173115
aI185972
aI342712
aI207201
aI203322
aI396146
aI358345
aI160763
aI183532
aI90264
aI96860
aI99728
aI149969
aI41619
aI94963
aI29822
aI164892
aI329258
aI28566
aI193773
aI236621
aI92606
aI118103
aI399934
aI51653
aI217955
aI203941
aI260057
aI103205
aI94494
aI64796
aI216237
aI261906
aI402501
aI2908
aI348950
aI333086
aI227329
aI246104
aI168219
aI276692
aI113176
aI105714
aI262127
aI264662
aI75761
aI176984
aI134724
aI102735
aI266655
aI31049
aI48717
aI273322
aI382894
aI398091
aI112771
aI150511
aI22633
aI274312
aI193576
aI21190
aI363334
aI230431
aI202919
aI135213
aI269583
aI17489
aI281760
aI300163
aI264824
aI102344
aI324404
aI224232
aI101769
aI302352
aI148912
aI81243
aI145813
aI95857
aI64418
aI357066
aI83481
aI290640
aI285136
aI46913
aI215459
aI346430
aI153017
aI72768
aI184643
aI199719
aI19943
aI400698
aI4175
aI87417
aI205182
aI110861
aI137791
aI249492
aI202152
aI242741
aI49764
aI229959
aI194082
aI259852
aI361242
aI163355
aI371164
aI310593
aI216222
aI54947
aI176007
aI382937
aI155410
aI163174
aI137889
aI5882
aI278355
aI106813
aI100375
aI74069
aI34229
aI371542
aI8695
aI246110
aI360152
aI184972
aI48987
aI32918
aI222293
aI190334
aI89804
aI191601
aI300493
aI61955
aI111687
aI307239
aI256964
aI142991
aI112237
aI254903
aI153100
aI26265
aI210871
aI267650
aI475
aI118217
aI110217
aI71038
aI150234
aI199318
aI162185
aI354968
aI358833
aI267887
aI292610
aI341423
aI37974
aI221299
aI77712
aI52609
aI285484
aI195511
aI39770
aI277319
aI353147
aI160746
aI207561
aI17996
aI241516
aI133726
aI190180
aI4989
aI394865
aI327655
aI310188
aI13001
aI309834
aI386092
aI182337
aI53026
aI107671
aI146256
aI339344
aI256902
aI402823
aI144826
aI202163
aI195405
aI243447
aI58909
aI186246
aI136200
aI349838
aI76002
aI56650
aI309803
aI278857
aI357691
aI74553
aI380235
aI233392
aI101361
aI296682
aI402656
aI73654
aI348200
aI351849
aI193466
aI359249
aI364225
aI128640
aI81209
aI188552
aI129767
aI79772
aI55782
aI120447
aI25295
aI165132
aI48076
aI248833
aI268154
aI70923
aI48032
aI351862
aI344899
aI324430
aI114428
aI79878
aI229058
aI84944
aI224343
aI133142
aI198501
aI178107
aI170689
aI393840
aI80186
aI275950
aI185646
aI141231
aI318830
aI294497
aI217298
aI321149
aI323576
aI179796
aI4148
aI161139
aI336620
aI361482
aI86614
aI210318
aI42056
aI194773
aI321675
aI7096
aI84331
aI233860
aI186824
aI282197
aI77988
aI185663
aI294752
aI28039
aI39728
aI74329
aI186706
aI225705
aI396539
aI387066
aI213948
aI67739
aI366690
aI381362
aI272935
aI361244
aI127215
aI190033
aI257119
aI157030
aI346839
aI178986
aI62874
aI183148
aI245885
aI286012
aI390607
aI218037
aI224436
aI2078
aI381440
aI345656
aI226905
aI82742
aI78116
aI327167
aI488
aI264025
aI275820
aI86120
aI161388
aI75518
aI105054
aI13954
aI264820
aI105999
aI16784
aI75545
aI73351
aI80318
aI128505
aI10832
aI282537
aI261381
aI68121
aI172501
aI342459
aI159637
aI15252
aI164883
aI272988
aI314329
aI253421
aI324242
aI327851
aI179012
aI323823
aI206978
aI377505
aI395469
aI371240
aI336555
aI20201
aI226742
aI232493
aI1201
aI240036
aI300700
aI61010
aI34890
aI8213
aI52298
aI348557
aI47175
aI291965
aI88704
aI324171
aI325195
aI197121
aI196404
aI15317
aI20029
aI190593
aI137507
aI189601
aI286621
aI184134
aI138124
aI106416
aI367112
aI344239
aI315650
aI73728
aI210433
aI402787
aI135901
aI336617
aI160880
aI112420
aI374762
aI137315
aI295030
aI232380
aI390480
aI139245
aI18968
aI75001
aI176804
aI138321
aI119844
aI216158
aI360400
aI249427
aI367036
aI81043
aI209203
aI197143
aI105744
aI350506
aI168996
aI150848
aI395581
aI394269
aI314742
aI86804
aI34598
aI277241
aI11190
aI172829
aI286056
aI205129
aI196471
aI93040
aI123252
aI53800
aI229517
aI283233
aI392218
aI193802
aI368059
aI67936
aI51907
aI291616
aI77533
aI99062
aI121469
aI243168
aI243134
aI97430
aI154547
aI40059
aI358961
aI298334
aI56308
aI165303
aI235624
aI126967
aI157919
aI366217
aI307187
aI30410
aI290407
aI216498
aI285971
aI134979
aI7067
aI229938
aI337044
aI323530
aI171540
aI158512
aI131062
aI154346
aI234616
aI314022
aI255543
aI158977
aI172437
aI26478
aI66321
aI402051
aI142864
aI324274
aI259661
aI176423
aI20908
aI40377
aI196906
aI292409
aI255112
aI275661
aI337821
aI113653
aI188100
aI324601
aI44566
aI379329
aI402766
aI40432
aI380004
aI129435
aI135372
aI174135
aI322481
aI4604
aI200562
aI268877
aI305237
aI309490
aI293623
aI305345
aI209176
aI322501
aI25066
aI73176
aI249128
aI37482
aI159090
aI369191
aI55647
aI131985
aI361897
aI348033
aI291631
aI131087
aI278421
aI186025
aI367073
aI248465
aI156609
aI252762
aI119602
aI146574
aI122762
aI63971
aI50588
aI289011
aI187882
aI168455
aI212623
aI30818
aI211526
aI268747
aI314495
aI241599
aI179795
aI130317
aI131052
aI95600
aI148933
aI239647
aI349480
aI78285
aI19822
aI34462
aI327376
aI1477
aI165701
aI342081
aI310368
aI18894
aI40361
aI148752
aI15496
aI162444
aI350252
aI298014
aI63383
aI2547
aI45062
aI11369
aI230628
aI349869
aI330284
aI394809
aI359973
aI38109
aI396655
aI326467
aI380232
aI177472
aI90370
aI19290
aI322125
aI14787
aI137895
aI280846
aI68074
aI374570
aI371585
aI269511
aI393971
aI190345
aI141961
aI71367
aI249658
aI310554
aI274586
aI193974
aI215471
aI1227
aI178487
aI342028
aI148709
aI262183
aI88472
aI339455
aI205633
aI132308
aI375936
aI52354
aI156246
aI173481
aI357493
aI235698
aI231520
aI320327
aI276040
aI119149
aI157461
aI368620
aI362459
aI309064
aI189573
aI113329
aI262871
aI403574
aI16946
aI192678
aI71280
aI340383
aI396255
aI247179
aI134407
aI41124
aI45378
aI31657
aI264450
aI223201
aI177141
aI172896
aI293852
aI169825
aI14447
aI218356
aI388907
aI244534
aI289748
aI118670
aI123302
aI211570
aI121008
aI250824
aI152730
aI192155
aI315237
aI105050
aI282265
aI263427
aI252017
aI375882
aI195514
aI239667
aI52012
aI344260
aI115434
aI182910
aI331951
aI179817
aI194076
aI108728
aI174806
aI172263
aI292251
aI114529
aI325356
aI244433
aI95340
aI301709
aI280687
aI237668
aI365417
aI164487
aI221195
aI71268
aI91129
aI61747
aI29998
aI91375
aI271016
aI51340
aI95871
aI237998
aI397669
aI75815
aI375705
aI28030
aI240462
aI278210
aI135909
aI50598
aI254838
aI122486
aI47310
aI137092
aI227543
aI71195
aI273920
aI32725
aI255069
aI134094
aI293072
aI98340
aI18143
aI3237
aI145038
aI402439
aI335737
aI314629
aI368590
aI317589
aI331824
aI85909
aI257401
aI189000
aI343658
aI338332
aI224664
aI382228
aI253108
aI297691
aI315893
aI358621
aI171568
aI85994
aI2433
aI266984
aI177191
aI241486
aI252381
aI346352
aI363163
aI164376
aI279436
aI169742
aI49492
aI286017
aI214945
aI44475
aI4428
aI281126
aI335366
aI9788
aI300914
aI367138
aI336078
aI349738
aI19197
aI370663
aI10223
aI323738
aI217088
aI120124
aI153625
aI28005
aI268062
aI134025
aI45232
aI232270
aI241315
aI125585
aI368078
aI251529
aI66111
aI159443
aI200646
aI46371
aI284961
aI96865
aI109903
aI335861
aI351691
aI230491
aI162210
aI215060
aI175559
aI326378
aI162862
aI166021
aI215355
aI356459
aI248150
aI352247
aI170012
aI213930
aI288002
aI141349
aI2564
aI268832
aI340458
aI17146
aI330471
aI318992
aI298044
aI16328
aI402500
aI380644
aI368251
aI331086
aI314694
aI324857
aI336573
aI274385
aI139096
aI159302
aI269451
aI76937
aI30500
aI59782
aI76087
aI312135
aI392658
aI342882
aI272505
aI388467
aI167083
aI185643
aI126954
aI115382
aI26208
aI196433
aI160019
aI256972
aI356338
aI383177
aI33017
aI186220
aI194125
aI49519
aI127518
aI353932
aI168138
aI202703
aI169328
aI343433
aI388227
aI160325
aI162302
aI172177
aI52273
aI17036
aI228115
aI72702
aI358485
aI169788
aI311117
aI1456
aI315096
aI301735
aI230105
aI401327
aI379402
aI235202
aI333572
aI116451
aI328017
aI196339
aI103885
aI354209
aI68297
aI20073
aI87404
aI83555
aI206776
aI173662
aI330631
aI390943
aI98765
aI18919
aI25585
aI21836
aI161971
aI175282
aI393405
aI187037
aI330729
aI223670
aI223911
aI41513
aI210437
aI292093
aI116856
aI102404
aI77983
aI299805
aI155176
aI55721
aI394677
aI147595
aI185516
aI118529
aI5290
aI78510
aI153225
aI403640
aI304094
aI131163
aI384682
aI367984
aI394196
aI121328
aI344323
aI47416
aI311145
aI25985
aI313759
aI218872
aI394139
aI9482
aI115184
aI114406
aI253673
aI384075
aI58856
aI196242
aI153044
aI154268
aI110555
aI270166
aI186128
aI276587
aI349395
aI240922
aI84451
aI201793
aI44958
aI214704
aI290951
aI234094
aI249587
aI58464
aI35504
aI66849
aI214926
aI236128
aI29480
aI67791
aI314313
aI235538
aI147804
aI2113
aI38983
aI277434
aI127011
aI400430
aI42712
aI255654
aI167556
aI192555
aI263136
aI335431
aI9844
aI277609
aI86639
aI249584
aI73123
aI27510
aI246258
aI195457
aI107880
aI92797
aI167471
aI182308
aI268967
aI268587
aI255442
aI33333
aI11495
aI116601
aI266319
aI170710
aI162946
aI392712
aI244539
aI29722
aI193043
aI334107
aI216463
aI292632
aI113483
aI295732
aI76155
aI260707
aI129620
aI85178
aI169820
aI225035
aI302013
aI224560
aI283571
aI48460
aI175261
aI123484
aI86894
aI21883
aI323482
aI134698
aI295906
aI100297
aI376363
aI398344
aI283341
aI205186
aI87979
aI135904
aI41184
aI362335
aI376888
aI269674
aI119654
aI195583
aI299681
aI327040
aI328963
aI362657
aI88327
aI30915
aI117858
aI30127
aI16322
aI61091
aI343606
aI259824
aI235626
aI402107
aI11998
aI22818
aI145171
aI339502
aI362593
aI260771
aI174134
aI331360
aI384837
aI144306
aI160809
aI266401
aI248917
aI323629
aI196395
aI234114
aI228460
aI38401
aI108559
aI185638
aI102276
aI90344
aI285968
aI282601
aI154420
aI134131
aI323921
aI302558
aI203788
aI107456
aI169437
aI397327
aI396742
aI62857
aI278036
aI351536
aI19509
aI191267
aI97010
aI33175
aI348325
aI105178
aI52061
aI221512
aI69860
aI141453
aI255806
aI15190
aI327106
aI74842
aI85596
aI195723
aI155219
aI339562
aI336034
aI268107
aI356075
aI273349
aI51671
aI228661
aI10537
aI8446
aI373299
aI294247
aI5253
aI162727
aI118278
aI276013
aI176591
aI155344
aI94291
aI257851
aI214078
aI104236
aI62025
aI399865
aI170877
aI97795
aI364740
aI329228
aI352662
aI92966
aI112094
aI323920
aI185651
aI253217
aI278566
aI237248
aI186160
aI294839
aI28364
aI306370
aI314487
aI15858
aI152915
aI327279
aI129415
aI119641
aI265281
aI254077
aI340273
aI326992
aI40595
aI250399
aI403468
aI115920
aI43090
aI153529
aI137951
aI18832
aI370893
aI128459
aI92567
aI265562
aI3689
aI180317
aI223959
aI252133
aI6275
aI155252
aI173874
aI130385
aI80230
aI275146
aI126220
aI360536
aI121772
aI381986
aI357632
aI34695
aI343713
aI373557
aI222790
aI346805
aI313741
aI214880
aI74221
aI262528
aI273297
aI46610
aI36263
aI17527
aI168515
aI259011
aI121841
aI200187
aI221460
aI212198
aI394325
aI367651
aI142877
aI401751
aI145957
aI87817
aI311884
aI125580
aI338253
aI215231
aI240549
aI393121
aI367633
aI333327
aI333622
aI58340
aI280118
aI314865
aI158317
aI380110
aI257266
aI367335
aI197148
aI156010
aI116511
aI338418
aI247995
aI191686
aI85599
aI38639
aI139574
aI354157
aI129303
aI46474
aI130487
aI61316
aI272631
aI217721
aI165296
aI310731
aI306998
aI359545
aI36892
aI75515
aI230200
aI114054
aI82133
aI288794
aI178004
aI386477
aI349969
aI275056
aI167080
aI196326
aI362902
aI265891
aI349994
aI383672
aI41528
aI281240
aI271610
aI369225
aI366605
aI319528
aI178966
aI332169
aI139084
aI326916
aI166853
aI325026
aI322514
aI247908
aI353773
aI92610
aI297249
aI69826
aI45337
aI225375
aI82264
aI282044
aI315626
aI398447
aI1328
aI82900
aI186378
aI397051
aI363039
aI34086
aI54521
aI77815
aI220635
aI78761
aI402791
aI90057
aI184326
aI159789
aI22527
aI193374
aI330198
aI157518
aI285580
aI67381
aI154507
aI376327
aI8818
aI330839
aI24961
aI341194
aI278835
aI227415
aI343077
aI156998
aI397153
aI242349
aI184277
aI378469
aI66755
aI317007
aI51151
aI300708
aI153813
aI158628
aI355596
aI134747
aI273594
aI358893
aI349901
aI219835
aI35411
aI205262
aI383290
aI396231
aI380090
aI62832
aI19169
aI46045
aI3645
aI94468
aI145457
aI282980
aI97086
aI316191
aI214160
aI145972
aI80013
aI98667
aI324285
aI394357
aI170755
aI196850
aI222338
aI291897
aI360020
aI285055
aI340044
aI191265
aI40364
aI79092
aI186598
aI156407
aI66727
aI306614
aI384549
aI149017
aI265000
aI22743
aI79052
aI148724
aI181703
aI261647
aI100137
aI374256
aI193116
aI331052
aI98527
aI366611
aI385252
aI314208
aI71820
aI164104
aI346240
aI383156
aI346373
aI245705
aI335228
aI217426
aI119311
aI175186
aI342065
aI58143
aI146214
aI401621
aI129735
aI260343
aI231761
aI49917
aI312480
aI26474
aI113828
aI255551
aI258949
aI299545
aI23821
aI49754
aI247550
aI300419
aI105531
aI134701
aI11795
aI57619
aI348528
aI106551
aI159852
aI321990
aI12887
aI123278
aI127370
aI382043
aI73935
aI319708
aI28336
aI46955
aI187829
aI26624
aI90681
aI277670
aI221477
aI5230
aI199516
aI321315
aI121401
aI391606
aI365987
aI242012
aI298370
aI38903
aI111730
aI351985
aI208378
aI58425
aI228960
aI311917
aI143137
aI29097
aI130306
aI316831
aI188595
aI35544
aI229578
aI118890
aI47923
aI361519
aI141925
aI309128
aI4903
aI185521
aI135823
aI46004
aI52293
aI253359
aI51109
aI380633
aI307338
aI286745
aI310783
aI47825
aI243104
aI228650
aI270850
aI315298
aI29246
aI385937
aI145095
aI119413
aI283330
aI167794
aI60662
aI380909
aI392228
aI34307
aI195478
aI321293
aI254600
aI218580
aI174700
aI323957
aI251105
aI149858
aI259048
aI193282
aI291798
aI274570
aI82715
aI359864
aI389695
aI19005
aI169461
aI210046
aI393118
aI185850
aI107444
aI347154
aI249778
aI203787
aI292202
aI219302
aI145347
aI67459
aI57613
aI64186
aI330984
aI258869
aI370811
aI120477
aI177320
aI260718
aI219321
aI177040
aI388817
aI241414
aI90095
aI18541
aI278457
aI142271
aI337291
aI136701
aI195652
aI169621
aI141950
aI152684
aI290020
aI81988
aI382640
aI307718
aI6070
aI340342
aI319945
aI297767
aI110477
aI75186
aI240483
aI71850
aI268215
aI275258
aI219023
aI190021
aI283213
aI141248
aI281473
aI285271
aI47312
aI364261
aI129843
aI31238
aI324573
aI363319
aI2110
aI282242
aI137689
aI110395
aI244149
aI151578
aI117979
aI167196
aI55464
aI354678
aI200817
aI114130
aI117642
aI554
aI204384
aI250098
aI295409
aI95562
aI201435
aI300367
aI273356
aI57414
aI385253
aI27943
aI130611
aI358865
aI272491
aI116526
aI109526
aI160164
aI128646
aI110038
aI127277
aI42799
aI220821
aI143423
aI66544
aI81670
aI228128
aI241654
aI37898
aI20326
aI359697
aI68300
aI258618
aI336615
aI205790
aI280651
aI172925
aI361590
aI90945
aI189371
aI160668
aI209173
aI400462
aI243103
aI51612
aI347207
aI370029
aI348820
aI54262
aI141723
aI156247
aI168537
aI308618
aI216833
aI360786
aI280926
aI8828
aI30144
aI222584
aI177584
aI266291
aI208005
aI342801
aI123386
aI136393
aI116947
aI274965
aI239059
aI117568
aI77567
aI246434
aI157206
aI134659
aI160362
aI15212
aI123269
aI8483
aI209539
aI141151
aI255552
aI368231
aI86541
aI108964
aI182024
aI18697
aI37682
aI327938
aI107948
aI92647
aI277480
aI185593
aI239335
aI393660
aI101948
aI164364
aI38462
aI361905
aI378550
aI90481
aI329928
aI103246
aI99186
aI125324
aI31676
aI195738
aI374504
aI254036
aI179338
aI269091
aI157620
aI323679
aI232846
aI71141
aI26757
aI237087
aI81307
aI291860
aI5769
aI319666
aI384608
aI199642
aI116487
aI387747
aI139426
aI145706
aI38432
aI123751
aI317837
aI144779
aI23584
aI67470
aI279801
aI296938
aI71879
aI192736
aI102913
aI72509
aI65019
aI164639
aI326334
aI344498
aI49580
aI249031
aI108822
aI246007
aI372831
aI191889
aI128497
aI237757
aI336695
aI132339
aI246911
aI307232
aI83131
aI19244
aI213430
aI122630
aI209970
aI396577
aI282818
aI396467
aI135321
aI370100
aI55022
aI383965
aI277576
aI110358
aI16074
aI115813
aI228923
aI338931
aI382054
aI355891
aI399414
aI265160
aI107322
aI295455
aI133532
aI113733
aI198952
aI298525
aI2727
aI323644
aI390868
aI389712
aI380628
aI279395
aI92902
aI365983
aI83864
aI29038
aI95915
aI347898
aI380293
aI119013
aI38194
aI247101
aI250629
aI380736
aI370703
aI246860
aI354308
aI307000
aI88106
aI12615
aI392306
aI360359
aI42347
aI119987
aI145765
aI236057
aI270310
aI120012
aI288660
aI11911
aI385484
aI33114
aI126886
aI233105
aI240378
aI32616
aI301024
aI168650
aI380479
aI69411
aI385725
aI259676
aI125414
aI242678
aI318641
aI332220
aI180102
aI214262
aI81506
aI36460
aI351950
aI287478
aI10761
aI120197
aI280168
aI204260
aI391035
aI370091
aI202846
aI226053
aI110446
aI197863
aI72266
aI45152
aI11415
aI185910
aI396846
aI10045
aI369702
aI363395
aI266991
aI363261
aI79221
aI378553
aI369946
aI123370
aI93593
aI356060
aI3083
aI347046
aI336649
aI52675
aI131861
aI401343
aI326220
aI311090
aI96292
aI119568
aI301759
aI232744
aI356428
aI337940
aI144053
aI402730
aI348965
aI2034
aI14713
aI49243
aI254970
aI270266
aI32636
aI140553
aI240761
aI8232
aI25850
aI158399
aI141724
aI284297
aI147107
aI21191
aI132549
aI186587
aI336888
aI103505
aI222094
aI198417
aI67775
aI292378
aI46469
aI344588
aI249861
aI211594
aI210483
aI113256
aI328216
aI275119
aI174646
aI293724
aI194323
aI117673
aI40799
aI161540
aI253975
aI146442
aI215239
aI59882
aI392508
aI392776
aI181535
aI153819
aI42720
aI309387
aI110847
aI101505
aI353370
aI354565
aI274307
aI131680
aI379796
aI302892
aI365658
aI58723
aI339627
aI193113
aI258512
aI283335
aI182140
aI346282
aI401844
aI395142
aI155948
aI169954
aI294042
aI16890
aI170805
aI153629
aI214463
aI386794
aI312511
aI293598
aI202321
aI380967
aI56376
aI140734
aI284451
aI289895
aI155208
aI239338
aI348844
aI394468
aI385093
aI178256
aI288244
aI6584
aI115791
aI80571
aI327475
aI366310
aI36441
aI226757
aI130720
aI329951
aI144630
aI308271
aI131390
aI77894
aI35712
aI346961
aI253084
aI155826
aI356652
aI124770
aI259930
aI372607
aI148459
aI100144
aI364236
aI61810
aI316068
aI40061
aI311608
aI269947
aI58233
aI42318
aI35495
aI119156
aI331097
aI196876
aI255761
aI309863
aI383866
aI225590
aI52240
aI22933
aI376869
aI329432
aI172596
aI273369
aI321704
aI132463
aI156319
aI158354
aI178313
aI251360
aI216214
aI177272
aI247621
aI37354
aI295201
aI251344
aI309528
aI22218
aI13990
aI130648
aI14057
aI25518
aI262143
aI88012
aI22744
aI338252
aI64933
aI382242
aI295430
aI375026
aI256205
aI151220
aI324131
aI140162
aI384992
aI386284
aI103939
aI193453
aI1600
aI344728
aI290326
aI227557
aI338718
aI76590
aI397460
aI131713
aI126158
aI262722
aI359050
aI231884
aI32054
aI37178
aI156196
aI220411
aI255621
aI282690
aI305708
aI55073
aI150216
aI142143
aI394729
aI102194
aI201476
aI255978
aI149973
aI141109
aI260511
aI2105
aI304795
aI182370
aI15630
aI114783
aI73924
aI384287
aI354394
aI356261
aI362484
aI192480
aI63454
aI5025
aI177488
aI8480
aI199229
aI384770
aI362519
aI79168
aI77410
aI199270
aI201059
aI16248
aI393235
aI322612
aI202794
aI382799
aI39010
aI104837
aI35913
aI260657
aI60963
aI91953
aI260848
aI393634
aI389658
aI165776
aI222582
aI168987
aI262155
aI379625
aI196092
aI86307
aI50276
aI182752
aI205368
aI149705
aI145461
aI299801
aI150494
aI103859
aI2317
aI156726
aI129708
aI318420
aI237369
aI402999
aI114811
aI200566
aI250383
aI228740
aI315292
aI33992
aI130413
aI362479
aI113092
aI371227
aI182003
aI29002
aI185376
aI305764
aI329369
aI370987
aI350886
aI60052
aI36088
aI336793
aI84228
aI352309
aI261642
aI232059
aI185924
aI164318
aI27153
aI11736
aI185161
aI90283
aI391785
aI124825
aI325276
aI104563
aI170391
aI392453
aI106614
aI117630
aI239074
aI98237
aI7491
aI363375
aI26017
aI34506
aI28698
aI339956
aI191460
aI188480
aI180285
aI304632
aI315766
aI293945
aI81834
aI55986
aI334550
aI219868
aI392400
aI120811
aI25960
aI139550
aI313180
aI292498
aI244277
aI323267
aI304158
aI217939
aI249121
aI181443
aI27951
aI59582
aI162533
aI109232
aI41916
aI353090
aI354229
aI140044
aI164124
aI235747
aI245528
aI287933
aI341631
aI193550
aI301903
aI290067
aI352884
aI19888
aI99132
aI535
aI338110
aI132149
aI109600
aI118183
aI274055
aI346338
aI309541
aI326878
aI54249
aI219966
aI216505
aI11757
aI224319
aI314253
aI243852
aI317834
aI160343
aI296584
aI362092
aI292022
aI239580
aI119278
aI163645
aI152997
aI85869
aI358099
aI31241
aI8532
aI21841
aI35772
aI224382
aI378758
aI155092
aI173639
aI169884
aI10849
aI365708
aI363691
aI214589
aI12189
aI230691
aI222080
aI33272
aI147571
aI351497
aI402834
aI131953
aI134104
aI340377
aI326587
aI80211
aI268900
aI152985
aI94279
aI8479
aI229303
aI184391
aI22014
aI246184
aI152151
aI275042
aI72046
aI402444
aI359636
aI329171
aI343225
aI254002
aI76984
aI27385
aI234765
aI341804
aI76302
aI27352
aI246619
aI16142
aI392669
aI13440
aI139842
aI211837
aI38497
aI4535
aI211482
aI223208
aI299403
aI1319
aI9337
aI283750
aI404218
aI98950
aI305734
aI312452
aI27619
aI383789
aI110744
aI280518
aI348691
aI42649
aI276183
aI308550
aI168293
aI249543
aI26250
aI191991
aI273239
aI112184
aI28864
aI295315
aI8793
aI79527
aI15466
aI203680
aI100833
aI169268
aI207809
aI385262
aI306392
aI354258
aI319468
aI132075
aI10661
aI73826
aI289218
aI230208
aI264083
aI385871
aI231726
aI244990
aI231387
aI377818
aI1270
aI91800
aI285446
aI385579
aI271272
aI340867
aI129098
aI384118
aI228337
aI356270
aI354019
aI154393
aI381794
aI364712
aI14977
aI155534
aI330068
aI73479
aI239324
aI68410
aI10237
aI134476
aI201253
aI308150
aI295185
aI284010
aI342559
aI103541
aI402731
aI174272
aI94389
aI201734
aI334973
aI235782
aI362968
aI342578
aI350685
aI170265
aI315805
aI196783
aI44401
aI287683
aI283065
aI311153
aI320423
aI5439
aI204222
aI231595
aI168575
aI146020
aI4615
aI177905
aI166491
aI355464
aI171072
aI200677
aI110888
aI42310
aI251370
aI230262
aI221012
aI217807
aI167803
aI267726
aI15583
aI230601
aI242254
aI96481
aI384263
aI184201
aI171036
aI67603
aI385217
aI272488
aI113350
aI198126
aI108322
aI192335
aI246204
aI342885
aI184611
aI225497
aI402778
aI61918
aI12343
aI277163
aI2511
aI123254
aI326182
aI190550
aI268192
aI40657
aI294135
aI252618
aI369313
aI331679
aI249011
aI195014
aI88367
aI221359
aI80395
aI201954
aI56379
aI126499
aI215532
aI264752
aI229606
aI31044
aI107056
aI199146
aI119714
aI403318
aI380280
aI291535
aI47174
aI164141
aI151038
aI87197
aI130601
aI27030
aI233952
aI31084
aI180050
aI249759
aI224875
aI307551
aI187684
aI286581
aI92727
aI379144
aI265389
aI215453
aI180040
aI384217
aI60420
aI170933
aI133256
aI105594
aI179804
aI347178
aI103016
aI24257
aI124434
aI147298
aI291966
aI105923
aI287446
aI396049
aI198336
aI255626
aI213515
aI136866
aI248755
aI232028
aI356021
aI340253
aI141640
aI314214
aI57391
aI25455
aI172516
aI340532
aI176550
aI73188
aI169762
aI73783
aI335857
aI140353
aI198041
aI359208
aI141789
aI204908
aI368810
aI262942
aI221249
aI286562
aI101150
aI164230
aI149440
aI100576
aI61062
aI399767
aI153
aI38561
aI291137
aI375664
aI337437
aI147374
aI308596
aI149125
aI248377
aI152824
aI10994
aI142945
aI97566
aI313346
aI223301
aI325202
aI139734
aI144833
aI317868
aI68227
aI114641
aI98774
aI252091
aI52721
aI153444
aI82022
aI305108
aI56090
aI162353
aI349239
aI342523
aI235898
aI176518
aI230068
aI271119
aI196381
aI267365
aI18780
aI184951
aI313052
aI277222
aI167920
aI97672
aI21553
aI214552
aI79214
aI118969
aI350136
aI330223
aI273377
aI335241
aI403623
aI276766
aI246962
aI133271
aI321896
aI198026
aI356717
aI83157
aI88054
aI210378
aI209615
aI127252
aI351956
aI174795
aI273138
aI136692
aI324692
aI292535
aI321096
aI210544
aI229305
aI54008
aI85345
aI271403
aI365851
aI143048
aI267508
aI107518
aI201518
aI240364
aI76900
aI58305
aI341991
aI124925
aI155251
aI228148
aI132100
aI115992
aI352397
aI191714
aI15569
aI114397
aI95832
aI63061
aI256772
aI223145
aI153715
aI398003
aI32500
aI290302
aI396865
aI363469
aI342626
aI4712
aI321987
aI326047
aI26324
aI2379
aI233500
aI85184
aI154894
aI353800
aI390762
aI12314
aI352754
aI267813
aI95971
aI27764
aI233238
aI80961
aI177895
aI121946
aI353630
aI247923
aI366135
aI352037
aI67048
aI30356
aI189094
aI333476
aI403817
aI231795
aI8753
aI256866
aI285847
aI80815
aI67782
aI367759
aI372715
aI109807
aI214549
aI393057
aI200303
aI118394
aI376442
aI150568
aI81744
aI399107
aI193921
aI332012
aI372579
aI345096
aI194268
aI140032
aI5597
aI131955
aI89873
aI112704
aI37350
aI188110
aI391211
aI234208
aI301745
aI329334
aI394541
aI270984
aI189859
aI86122
aI317914
aI357345
aI200618
aI242121
aI70600
aI3647
aI196250
aI394719
aI97368
aI126054
aI353806
aI161127
aI215036
aI239582
aI147937
aI278186
aI195584
aI97439
aI117146
aI131412
aI189740
aI79974
aI6710
aI230165
aI381118
aI383551
aI171171
aI283303
aI108825
aI267196
aI208464
aI8139
aI206114
aI382940
aI237848
aI263636
aI397656
aI40225
aI282251
aI233467
aI206927
aI171076
aI175254
aI389025
aI47748
aI13363
aI249815
aI166424
aI296525
aI48680
aI5572
aI282422
aI403034
aI173636
aI124474
aI8848
aI394737
aI172464
aI144947
aI370363
aI94444
aI123146
aI126236
aI211512
aI103467
aI164561
aI76655
aI70804
aI218154
aI347728
aI311196
aI247445
aI252064
aI253277
aI173709
aI223519
aI229363
aI380871
aI363272
aI39439
aI72948
aI250498
aI180701
aI366057
aI102284
aI296960
aI72706
aI268759
aI16073
aI308349
aI140184
aI64773
aI231230
aI308796
aI183344
aI15740
aI131421
aI228934
aI271455
aI297033
aI55566
aI261731
aI218374
aI171019
aI367885
aI96827
aI203226
aI145204
aI278281
aI201101
aI221327
aI285528
aI258918
aI225374
aI350
aI243454
aI3627
aI319575
aI291688
aI125377
aI143401
aI91066
aI305574
aI266983
aI28372
aI258580
aI119173
aI86649
aI387739
aI239247
aI369250
aI397532
aI116574
aI229820
aI175085
aI141632
aI330184
aI397849
aI368316
aI156092
aI59866
aI359137
aI34632
aI390706
aI328226
aI232106
aI40784
aI311950
aI74832
aI188608
aI183616
aI220065
aI21375
aI381509
aI60729
aI49242
aI388340
aI337662
aI243
aI266770
aI71702
aI300498
aI43235
aI89334
aI269825
aI211709
aI198193
aI226429
aI13361
aI48806
aI174117
aI399927
aI19724
aI261006
aI95613
aI368257
aI21294
aI10547
aI283638
aI188540
aI336130
aI23473
aI28609
aI369971
aI261620
aI92410
aI271181
aI125503
aI252173
aI179279
aI26843
aI116169
aI233830
aI186772
aI12443
aI243315
aI84726
aI332985
aI300646
aI379381
aI95506
aI69176
aI384353
aI225637
aI317055
aI204046
aI168974
aI295568
aI139023
aI370696
aI311504
aI347864
aI200101
aI593
aI237477
aI174386
aI7445
aI210387
aI141093
aI225714
aI385236
aI270100
aI215058
aI271097
aI158784
aI323991
aI48307
aI300634
aI250865
aI276575
aI240885
aI71348
aI93301
aI102584
aI194656
aI51679
aI181311
aI92708
aI202842
aI142886
aI112662
aI323024
aI212745
aI268592
aI319827
aI233723
aI13558
aI128256
aI397097
aI51242
aI291446
aI325672
aI314969
aI225266
aI370334
aI218674
aI399529
aI243674
aI304906
aI266132
aI206375
aI391525
aI73063
aI342674
aI293548
aI335768
aI136304
aI305530
aI253224
aI69802
aI91475
aI15697
aI27657
aI238910
aI168079
aI27286
aI256199
aI99896
aI190243
aI255354
aI399191
aI160908
aI119995
aI138317
aI79268
aI91252
aI255433
aI183183
aI235175
aI190094
aI268323
aI328800
aI9243
aI72883
aI89872
aI172091
aI98206
aI280711
aI349012
aI161755
aI65287
aI208389
aI119507
aI143295
aI181704
aI276407
aI168793
aI8881
aI358614
aI93496
aI152856
aI402130
aI229210
aI302851
aI59639
aI30646
aI391403
aI22713
aI7223
aI230465
aI248845
aI111919
aI188282
aI332290
aI180890
aI167286
aI381194
aI198837
aI398578
aI133479
aI19866
aI314043
aI347210
aI308824
aI371128
aI297724
aI305315
aI355699
aI307993
aI162464
aI217972
aI382118
aI110408
aI142611
aI299725
aI357264
aI32253
aI94564
aI367449
aI213154
aI295454
aI214508
aI132877
aI153298
aI42661
aI330348
aI36847
aI224380
aI208040
aI170620
aI16987
aI149852
aI204812
aI6504
aI132687
aI206596
aI356381
aI401234
aI38663
aI321737
aI77996
aI1073
aI350773
aI123772
aI155503
aI355834
aI201766
aI347760
aI58657
aI101784
aI321120
aI162120
aI35320
aI276808
aI376639
aI68063
aI212288
aI117515
aI219055
aI68993
aI8530
aI162720
aI29704
aI110062
aI20615
aI348424
aI185198
aI261999
aI305958
aI102336
aI396941
aI129937
aI28178
aI96759
aI337042
aI44412
aI255284
aI297005
aI197265
aI320497
aI353037
aI184337
aI195468
aI180545
aI134053
aI183061
aI314823
aI120910
aI213279
aI49538
aI377984
aI221994
aI52370
aI87837
aI21779
aI21745
aI305649
aI78980
aI152593
aI299522
aI167221
aI171952
aI243793
aI320632
aI8464
aI170111
aI254075
aI68324
aI203079
aI364882
aI340025
aI159262
aI371503
aI398165
aI349887
aI233345
aI290604
aI382439
aI148612
aI393584
aI208555
aI387492
aI312824
aI286545
aI160342
aI240899
aI350495
aI386182
aI190045
aI296703
aI361996
aI216560
aI83066
aI379411
aI231732
aI106353
aI150128
aI178120
aI307333
aI126494
aI281702
aI21936
aI348204
aI37500
aI225137
aI128455
aI45712
aI283275
aI228111
aI127674
aI272908
aI378633
aI56205
aI384535
aI134583
aI389168
aI225821
aI120680
aI44778
aI11788
aI297102
aI283883
aI163650
aI167728
aI174859
aI105301
aI169297
aI161768
aI314501
aI37307
aI53156
aI116722
aI205073
aI138506
aI297924
aI240486
aI368576
aI30544
aI41438
aI292481
aI124876
aI347546
aI196223
aI309835
aI201005
aI17115
aI149797
aI9066
aI358710
aI376548
aI201234
aI95123
aI161458
aI81763
aI204909
aI314590
aI337531
aI183422
aI329145
aI356284
aI211698
aI389528
aI93000
aI367988
aI18019
aI66752
aI158918
aI121453
aI143256
aI212878
aI116688
aI1670
aI372572
aI33570
aI164474
aI371121
aI286731
aI244065
aI349595
aI394370
aI108237
aI398895
aI257246
aI378838
aI329083
aI131146
aI84860
aI264202
aI115805
aI80823
aI345889
aI136651
aI87257
aI287425
aI195434
aI323856
aI62350
aI183838
aI351757
aI30605
aI266855
aI108541
aI150096
aI304580
aI401669
aI298299
aI137285
aI85889
aI380566
aI38762
aI139187
aI50392
aI160154
aI154314
aI271251
aI135287
aI396403
aI92752
aI51606
aI40257
aI253324
aI17532
aI167225
aI226855
aI208776
aI221202
aI262365
aI118433
aI222326
aI167237
aI129864
aI34782
aI165551
aI133066
aI228496
aI214162
aI203809
aI378639
aI262239
aI78682
aI112004
aI42584
aI25550
aI90552
aI259069
aI177425
aI8103
aI240235
aI173929
aI355764
aI283469
aI90207
aI17931
aI316193
aI165
aI10100
aI222903
aI174913
aI271528
aI64320
aI323817
aI297309
aI159873
aI19658
aI45385
aI49444
aI237212
aI288514
aI87171
aI42586
aI15229
aI6049
aI78793
aI189356
aI134897
aI30462
aI389035
aI55308
aI357562
aI284358
aI128255
aI56221
aI94087
aI3592
aI390699
aI223033
aI121890
aI8804
aI66076
aI137663
aI293982
aI240136
aI206664
aI330817
aI352026
aI108523
aI306659
aI60960
aI259014
aI37933
aI47042
aI388307
aI122429
aI347340
aI20014
aI285573
aI138752
aI219047
aI57481
aI269044
aI161936
aI199131
aI104686
aI322050
aI308755
aI23873
aI134044
aI112169
aI312687
aI152207
aI386472
aI278305
aI341128
aI149612
aI273411
aI291475
aI95115
aI314898
aI312179
aI352855
aI112197
aI330417
aI2512
aI100965
aI269368
aI322368
aI175803
aI263441
aI5903
aI377266
aI97231
aI133707
aI17249
aI797
aI143965
aI36024
aI112170
aI128955
aI47063
aI293920
aI63788
aI6961
aI9714
aI93601
aI123947
aI151535
aI128400
aI391074
aI248898
aI169479
aI57239
aI166630
aI215466
aI85940
aI339295
aI61834
aI170375
aI12313
aI58744
aI15651
aI79899
aI224434
aI390154
aI12501
aI83294
aI179315
aI357769
aI149315
aI37867
aI394012
aI54547
aI216852
aI246546
aI352256
aI29576
aI365197
aI326279
aI209041
aI263216
aI125936
aI203684
aI336956
aI116538
aI312496
aI109234
aI140995
aI218478
aI199765
aI357711
aI267870
aI54264
aI35053
aI103066
aI214452
aI123666
aI216211
aI189476
aI385784
aI281137
aI391247
aI31352
aI254078
aI341482
aI64894
aI292685
aI254351
aI234709
aI223803
aI96752
aI296514
aI81370
aI91058
aI330173
aI290234
aI52412
aI356490
aI223070
aI291459
aI305697
aI38131
aI191352
aI268827
aI166989
aI41905
aI309561
aI396441
aI32951
aI138066
aI192266
aI402314
aI387331
aI306797
aI266539
aI130964
aI26661
aI307996
aI38331
aI33400
aI186472
aI11191
aI311382
aI279839
aI120422
aI154697
aI137662
aI80586
aI318105
aI157721
aI249633
aI270676
aI14306
aI135925
aI374502
aI265409
aI243842
aI100118
aI300614
aI397770
aI299581
aI86168
aI188564
aI352605
aI339569
aI160540
aI91473
aI350262
aI329631
aI357703
aI189484
aI241229
aI330663
aI215405
aI376512
aI7248
aI284880
aI38736
aI56384
aI201774
aI346748
aI187438
aI343294
aI297602
aI339473
aI94546
aI110646
aI30147
aI578
aI246308
aI142348
aI188249
aI2313
aI266357
aI43568
aI24363
aI136544
aI220167
aI350526
aI129666
aI173220
aI365180
aI55728
aI384251
aI365787
aI264039
aI248485
aI338617
aI705
aI346067
aI232588
aI380748
aI114476
aI177867
aI245248
aI850
aI148411
aI182340
aI3886
aI15685
aI338493
aI253357
aI303359
aI111440
aI397859
aI351582
aI167132
aI90989
aI266670
aI275017
aI373506
aI307695
aI275254
aI260635
aI257255
aI137452
aI321210
aI124715
aI322087
aI227033
aI172112
aI41150
aI188721
aI126326
aI217733
aI57315
aI258046
aI160195
aI280591
aI33030
aI380295
aI187917
aI70599
aI58917
aI248212
aI35878
aI121325
aI98685
aI66409
aI91881
aI180782
aI246600
aI104568
aI313227
aI395896
aI108982
aI66825
aI404249
aI107200
aI132749
aI212297
aI266388
aI45650
aI247506
aI318333
aI30898
aI110329
aI402629
aI332674
aI324377
aI229946
aI169799
aI168538
aI112267
aI141727
aI156978
aI391681
aI156921
aI37068
aI333136
aI384907
aI150056
aI293282
aI136186
aI14737
aI255777
aI87639
aI348711
aI131827
aI43691
aI31755
aI221337
aI402368
aI241082
aI293315
aI87256
aI280257
aI251892
aI70255
aI262170
aI309190
aI132916
aI239982
aI183706
aI17872
aI1907
aI23999
aI321756
aI358124
aI166048
aI300504
aI352173
aI273927
aI103341
aI85375
aI265387
aI241316
aI235200
aI39333
aI39141
aI394451
aI119065
aI4414
aI116214
aI107566
aI265738
aI152647
aI192227
aI395094
aI219316
aI63103
aI323016
aI14263
aI277884
aI274506
aI74196
aI251349
aI247312
aI298142
aI277083
aI308155
aI31129
aI151213
aI130790
aI83139
aI381716
aI33868
aI364213
aI321713
aI185381
aI4366
aI70650
aI178873
aI181445
aI396336
aI352362
aI124696
aI175315
aI285254
aI262418
aI72823
aI151785
aI346307
aI313157
aI14026
aI157954
aI299214
aI155904
aI382849
aI354355
aI242352
aI256181
aI170378
aI185942
aI158384
aI119536
aI144049
aI297674
aI351089
aI291346
aI171228
aI259226
aI51248
aI245039
aI258989
aI171601
aI321415
aI164845
aI395422
aI344809
aI215653
aI227012
aI383127
aI78199
aI149702
aI279091
aI296556
aI182183
aI63583
aI244131
aI247191
aI362816
aI266285
aI39777
aI54239
aI242427
aI171492
aI301249
aI97214
aI214855
aI311187
aI227909
aI269312
aI258118
aI187762
aI256431
aI206952
aI384422
aI388522
aI344442
aI88882
aI13233
aI174746
aI40616
aI237588
aI331165
aI62882
aI258177
aI256362
aI224856
aI20155
aI162770
aI287322
aI191763
aI153251
aI202524
aI138181
aI19710
aI378246
aI84853
aI143531
aI391059
aI52511
aI49820
aI300437
aI253619
aI275960
aI79597
aI256731
aI97307
aI204381
aI226510
aI162588
aI169606
aI200495
aI304974
aI183652
aI55176
aI385880
aI121801
aI235622
aI307999
aI91207
aI126738
aI99573
aI29882
aI221444
aI324003
aI143149
aI239916
aI321676
aI8854
aI188830
aI358995
aI83512
aI66609
aI128388
aI333129
aI193525
aI163421
aI221501
aI177846
aI300617
aI162813
aI128403
aI374379
aI223678
aI19682
aI303476
aI75731
aI203933
aI94876
aI29417
aI49148
aI109794
aI46542
aI230643
aI68386
aI196536
aI278598
aI322532
aI191204
aI190051
aI4648
aI183272
aI54596
aI343216
aI234309
aI118742
aI197083
aI254638
aI204899
aI368186
aI199213
aI17551
aI37942
aI304821
aI118320
aI60019
aI81349
aI318110
aI64401
aI346009
aI77534
aI119242
aI241060
aI180289
aI376219
aI39220
aI27088
aI248651
aI337145
aI235337
aI136907
aI53120
aI180008
aI337611
aI377381
aI89608
aI34013
aI371178
aI124739
aI168606
aI66793
aI95011
aI223822
aI5548
aI133141
aI360264
aI356051
aI116262
aI300490
aI136076
aI253755
aI211430
aI11187
aI89171
aI7787
aI226935
aI176468
aI326015
aI92585
aI83147
aI130164
aI270764
aI341853
aI240743
aI51582
aI21062
aI135062
aI91865
aI103453
aI154385
aI55604
aI127993
aI66707
aI321645
aI171572
aI162978
aI141549
aI288068
aI154875
aI403280
aI74731
aI276230
aI365689
aI117860
aI388709
aI128688
aI101790
aI378080
aI336109
aI279490
aI36467
aI49718
aI367719
aI264369
aI387260
aI193186
aI272163
aI227055
aI139757
aI241835
aI254908
aI199951
aI312289
aI161695
aI372096
aI120311
aI57442
aI312311
aI217465
aI4424
aI202365
aI229580
aI378458
aI61588
aI342265
aI32350
aI327613
aI369490
aI214800
aI95429
aI299292
aI143031
aI23589
aI51124
aI117432
aI194692
aI388139
aI90895
aI309012
aI331501
aI318086
aI255976
aI127272
aI236314
aI250097
aI213638
aI25634
aI64873
aI107706
aI48188
aI213023
aI90047
aI238944
aI142138
aI6805
aI34772
aI36267
aI173404
aI215940
aI299081
aI27493
aI166637
aI317978
aI212582
aI169974
aI272983
aI85279
aI135946
aI158049
aI321833
aI32472
aI80543
aI365501
aI29639
aI115342
aI268047
aI48176
aI257499
aI292542
aI78544
aI347713
aI153820
aI109418
aI347941
aI225241
aI340360
aI231043
aI310202
aI272589
aI251796
aI288186
aI148047
aI305639
aI201167
aI125909
aI262340
aI282645
aI207012
aI245309
aI368046
aI252276
aI218308
aI259732
aI338343
aI212654
aI201775
aI67877
aI339226
aI299206
aI49327
aI83181
aI128712
aI210309
aI338045
aI16223
aI196430
aI79000
aI204555
aI271343
aI373374
aI55838
aI46220
aI133721
aI70250
aI318822
aI401709
aI299644
aI43777
aI299141
aI22339
aI3583
aI29868
aI250335
aI69202
aI222010
aI354379
aI18734
aI156490
aI209565
aI50415
aI346479
aI39554
aI358403
aI294808
aI117247
aI232326
aI402963
aI47088
aI69476
aI328972
aI62165
aI118716
aI284710
aI174935
aI60528
aI323078
aI314813
aI230204
aI293259
aI180699
aI135703
aI17405
aI280361
aI361819
aI123471
aI254180
aI377264
aI65535
aI303535
aI104834
aI135418
aI7551
aI259052
aI2565
aI369785
aI169072
aI190971
aI323329
aI185574
aI295537
aI138039
aI139444
aI301668
aI60688
aI280472
aI54157
aI206713
aI384209
aI169177
aI292137
aI193452
aI122629
aI385399
aI232336
aI13969
aI285099
aI112627
aI372932
aI344341
aI332303
aI6364
aI64678
aI375796
aI122390
aI123894
aI324649
aI350194
aI16723
aI182844
aI245056
aI402753
aI173707
aI196450
aI234467
aI143
aI216448
aI358487
aI96149
aI68381
aI214334
aI377768
aI66530
aI211871
aI192889
aI31166
aI49005
aI104661
aI326399
aI296967
aI372979
aI188873
aI170644
aI213083
aI254414
aI277045
aI344271
aI98837
aI41848
aI266589
aI112860
aI245595
aI186615
aI268616
aI305004
aI26112
aI321557
aI284134
aI248195
aI113524
aI342465
aI315682
aI98928
aI80572
aI270092
aI198937
aI120007
aI265624
aI139743
aI395856
aI399147
aI106470
aI343212
aI301987
aI201374
aI145156
aI191043
aI100140
aI117065
aI166704
aI24677
aI143334
aI46977
aI103799
aI44397
aI265176
aI403330
aI123931
aI382946
aI245071
aI58419
aI398218
aI132468
aI54599
aI172222
aI160188
aI330438
aI40634
aI49426
aI28587
aI17773
aI254897
aI344819
aI352063
aI360910
aI224702
aI183252
aI181635
aI287865
aI229373
aI10304
aI203113
aI177747
aI363823
aI50710
aI13474
aI179775
aI27707
aI253149
aI19096
aI152543
aI350169
aI376323
aI158084
aI153863
aI149668
aI72928
aI311225
aI243988
aI45166
aI336070
aI238462
aI112295
aI256661
aI75639
aI241097
aI66289
aI194565
aI155307
aI57461
aI337741
aI370121
aI274763
aI355709
aI199297
aI117944
aI19482
aI391432
aI124703
aI385611
aI138754
aI222755
aI325394
aI42852
aI108040
aI44805
aI189929
aI374566
aI42490
aI332810
aI287151
aI95003
aI15707
aI121088
aI6720
aI124333
aI384103
aI393762
aI179757
aI397248
aI325023
aI131057
aI34843
aI328570
aI189571
aI5845
aI261661
aI350414
aI88274
aI297416
aI228907
aI300351
aI153354
aI342892
aI349023
aI349592
aI70095
aI367294
aI144292
aI204688
aI142956
aI97188
aI98922
aI362392
aI234907
aI119627
aI234726
aI102625
aI197118
aI371413
aI294792
aI295323
aI66435
aI332240
aI30413
aI159769
aI2392
aI37291
aI294658
aI59570
aI355987
aI87398
aI26688
aI202689
aI243051
aI188987
aI205230
aI202898
aI296397
aI286925
aI277353
aI325235
aI327387
aI99845
aI401497
aI331993
aI142287
aI386464
aI117416
aI206295
aI282316
aI384753
aI347411
aI333024
aI19491
aI287705
aI371545
aI205691
aI233998
aI261787
aI315500
aI155411
aI272519
aI186709
aI111720
aI84659
aI329815
aI234854
aI375361
aI218937
aI94599
aI52939
aI228870
aI12345
aI135935
aI249667
aI207362
aI243830
aI141161
aI283827
aI508
aI347092
aI298183
aI220877
aI206268
aI8655
aI258469
aI275369
aI319337
aI98984
aI376444
aI127979
aI33573
aI304705
aI307573
aI146351
aI385014
aI354011
aI258358
aI361827
aI253656
aI346612
aI244365
aI202859
aI31798
aI226877
aI245888
aI159936
aI138662
aI263424
aI55981
aI332363
aI384764
aI245930
aI156322
aI403053
aI121511
aI244089
aI64431
aI41904
aI324452
aI266000
aI113756
aI159021
aI149506
aI251770
aI326885
aI58249
aI182849
aI41353
aI345245
aI18119
aI179566
aI60375
aI12709
aI209444
aI358592
aI46132
aI59128
aI198156
aI317737
aI167148
aI198352
aI385745
aI350211
aI325037
aI254311
aI71902
aI347866
aI328611
aI190894
aI372012
aI110178
aI209920
aI262714
aI40365
aI229001
aI40458
aI358723
aI199966
aI20494
aI392499
aI37932
aI96556
aI110854
aI234954
aI361528
aI39787
aI199950
aI151892
aI126043
aI209483
aI311913
aI179884
aI62012
aI273848
aI163405
aI10393
aI92836
aI165141
aI6853
aI89556
aI380422
aI105174
aI347238
aI344943
aI318055
aI389020
aI297982
aI372226
aI64077
aI324746
aI20586
aI166694
aI238195
aI36289
aI51567
aI126257
aI431
aI399194
aI20254
aI258823
aI271796
aI384805
aI103995
aI391199
aI114121
aI330784
aI68147
aI179440
aI133487
aI393431
aI128249
aI183614
aI264951
aI133311
aI267231
aI367092
aI25512
aI250705
aI369839
aI159059
aI36393
aI264252
aI129267
aI394154
aI156604
aI134141
aI16672
aI371738
aI233317
aI67878
aI281722
aI218560
aI240195
aI286081
aI244333
aI403225
aI269906
aI16497
aI210415
aI259967
aI210029
aI57850
aI199704
aI90304
aI306918
aI239815
aI201860
aI280615
aI392576
aI307213
aI129633
aI49475
aI46679
aI77295
aI30055
aI269875
aI51885
aI201174
aI39377
aI303186
aI76698
aI329279
aI29535
aI219224
aI46883
aI271043
aI56719
aI330493
aI308366
aI317251
aI44061
aI338133
aI104566
aI27786
aI337950
aI361171
aI194982
aI183264
aI387622
aI53364
aI285033
aI55956
aI157886
aI210693
aI390663
aI65244
aI76545
aI41607
aI88902
aI151989
aI151243
aI78398
aI320313
aI116361
aI63567
aI122177
aI194205
aI355775
aI209764
aI396756
aI18935
aI204185
aI196817
aI136647
aI222647
aI119878
aI312382
aI11261
aI33653
aI387205
aI82219
aI391914
aI224339
aI123045
aI64492
aI282988
aI180441
aI330305
aI356388
aI369666
aI27287
aI329105
aI204962
aI184257
aI237334
aI82935
aI204768
aI35217
aI110671
aI36062
aI274029
aI23954
aI173824
aI114248
aI41251
aI260945
aI361198
aI285447
aI65485
aI23836
aI282796
aI279007
aI142745
aI245947
aI52469
aI275743
aI16465
aI70763
aI350880
aI97982
aI182077
aI341097
aI97073
aI307964
aI189921
aI45439
aI51555
aI60608
aI214448
aI52497
aI36406
aI252175
aI52580
aI25116
aI270602
aI20366
aI379806
aI190625
aI62066
aI265321
aI156417
aI15967
aI398441
aI264755
aI300874
aI90515
aI282115
aI283405
aI227809
aI184518
aI258215
aI171446
aI134281
aI320616
aI86734
aI254375
aI208220
aI257197
aI238783
aI330231
aI316995
aI222228
aI124186
aI56224
aI265257
aI86305
aI312902
aI106770
aI371052
aI47657
aI237147
aI369113
aI274017
aI331596
aI72350
aI279837
aI191755
aI82711
aI307314
aI387125
aI161694
aI145790
aI138119
aI382401
aI177187
aI257190
aI163833
aI322818
aI189158
aI91220
aI335423
aI215864
aI198526
aI168785
aI67837
aI209810
aI347724
aI319774
aI4515
aI189755
aI19871
aI129716
aI270118
aI196083
aI378911
aI197039
aI10217
aI147306
aI279999
aI386697
aI314280
aI102449
aI139584
aI232199
aI341288
aI1006
aI149829
aI200210
aI328821
aI328687
aI352191
aI285895
aI166433
aI311236
aI4174
aI46540
aI155139
aI313954
aI300866
aI338140
aI187114
aI270249
aI208984
aI134264
aI6788
aI360282
aI105615
aI344459
aI78633
aI329572
aI189734
aI2097
aI359906
aI350060
aI115874
aI247591
aI378154
aI100121
aI13923
aI270297
aI145411
aI247864
aI149479
aI52777
aI311648
aI141057
aI302619
aI83810
aI31205
aI100260
aI113974
aI281220
aI328969
aI138232
aI140113
aI298023
aI4590
aI313362
aI334625
aI29859
aI160218
aI138410
aI40561
aI201618
aI363295
aI322466
aI174994
aI294669
aI122272
aI202719
aI67610
aI156240
aI144964
aI311282
aI400569
aI230784
aI28402
aI316093
aI2649
aI271484
aI20380
aI89887
aI206100
aI221594
aI100447
aI28369
aI116178
aI113048
aI134277
aI283577
aI378923
aI255642
aI221954
aI310579
aI19077
aI87225
aI120269
aI350822
aI118315
aI261861
aI81337
aI332829
aI332886
aI379558
aI243814
aI367621
aI15297
aI316304
aI18731
aI176702
aI123291
aI269402
aI30311
aI45763
aI48261
aI215013
aI312568
aI100907
aI245629
aI160099
aI264545
aI348799
aI322568
aI163744
aI306220
aI251444
aI218107
aI224494
aI326414
aI322483
aI307267
aI302995
aI143135
aI33966
aI173105
aI30289
aI25211
aI292350
aI309293
aI213886
aI391450
aI211964
aI29293
aI11276
aI49108
aI21534
aI88080
aI352271
aI267071
aI255988
aI329338
aI384605
aI125836
aI82705
aI314889
aI293048
aI134793
aI388027
aI317058
aI264151
aI115392
aI194155
aI306375
aI263239
aI329018
aI206323
aI142133
aI224519
aI298128
aI253640
aI234870
aI116230
aI306754
aI56525
aI117961
aI402620
aI80610
aI240620
aI311262
aI355159
aI107000
aI340093
aI16549
aI73861
aI125748
aI144126
aI190256
aI264680
aI142626
aI298495
aI40013
aI77023
aI354134
aI311179
aI226772
aI139274
aI12151
aI256297
aI60335
aI162677
aI233607
aI39870
aI91307
aI11072
aI94672
aI325149
aI122048
aI86964
aI117220
aI288074
aI104846
aI322679
aI203147
aI296903
aI266364
aI241593
aI375393
aI157738
aI232246
aI176624
aI249869
aI7338
aI263180
aI111491
aI136736
aI295026
aI195947
aI194885
aI12968
aI125621
aI289023
aI94833
aI186538
aI218115
aI387847
aI265092
aI309589
aI130832
aI384120
aI199089
aI41258
aI277120
aI304615
aI152143
aI211199
aI48003
aI216365
aI399104
aI306108
aI377420
aI39075
aI303615
aI163563
aI51306
aI105868
aI263672
aI341368
aI216649
aI309580
aI99453
aI80813
aI250739
aI81104
aI117292
aI351509
aI259027
aI220406
aI216652
aI73185
aI5069
aI253392
aI165347
aI28285
aI147857
aI270545
aI400709
aI249934
aI330424
aI127646
aI37680
aI334386
aI210767
aI362368
aI119991
aI13563
aI237875
aI55387
aI51752
aI383064
aI349962
aI401324
aI108099
aI43250
aI175331
aI192039
aI223956
aI334348
aI53358
aI297389
aI397122
aI390124
aI303889
aI105422
aI359266
aI386587
aI184371
aI394683
aI40505
aI56332
aI111920
aI277758
aI376514
aI384420
aI135186
aI193051
aI19059
aI322576
aI69351
aI300820
aI305886
aI97790
aI250092
aI52884
aI179560
aI122317
aI394264
aI392420
aI74734
aI3410
aI334101
aI152001
aI316251
aI324792
aI287259
aI271088
aI154271
aI84459
aI150468
aI128677
aI266098
aI274827
aI131311
aI371808
aI55429
aI50819
aI353747
aI225485
aI28337
aI196173
aI204624
aI103795
aI135499
aI390426
aI206733
aI274954
aI297505
aI303188
aI65967
aI76583
aI217917
aI198213
aI235221
aI3955
aI389356
aI278272
aI40596
aI130602
aI323804
aI123895
aI221978
aI78882
aI290141
aI107478
aI302708
aI21156
aI307991
aI128131
aI251976
aI123781
aI387476
aI90564
aI97854
aI391978
aI262063
aI306917
aI354373
aI87936
aI225520
aI345007
aI221564
aI353677
aI389816
aI158113
aI310832
aI70282
aI18526
aI17358
aI104046
aI58325
aI272614
aI166060
aI290266
aI31368
aI150570
aI319209
aI78776
aI334935
aI395442
aI263568
aI146220
aI217238
aI158474
aI313502
aI200291
aI76777
aI40905
aI366032
aI297819
aI139202
aI296297
aI212824
aI309833
aI171054
aI130984
aI6447
aI126122
aI3159
aI160401
aI277144
aI237576
aI192797
aI339465
aI366357
aI32285
aI243983
aI142858
aI140828
aI88954
aI283605
aI151255
aI296021
aI114270
aI164509
aI174873
aI10029
aI140210
aI4790
aI218372
aI27821
aI394656
aI210074
aI51479
aI387361
aI53255
aI66860
aI3496
aI35300
aI366222
aI209271
aI352299
aI162961
aI109603
aI160716
aI259279
aI116147
aI80208
aI259567
aI265734
aI179263
aI232956
aI370758
aI311780
aI370617
aI79900
aI313168
aI29508
aI380493
aI342287
aI282668
aI345590
aI16922
aI246898
aI291785
aI171060
aI63503
aI67646
aI247626
aI355642
aI10649
aI232865
aI226125
aI173082
aI67615
aI214427
aI347332
aI41666
aI250715
aI46489
aI211399
aI38333
aI377496
aI289205
aI308835
aI365079
aI17540
aI184147
aI334788
aI201729
aI393437
aI50930
aI236955
aI310
aI135067
aI326559
aI78222
aI90665
aI224869
aI264240
aI169516
aI61824
aI364585
aI386064
aI50801
aI310278
aI259289
aI33234
aI137266
aI335638
aI139411
aI127111
aI184360
aI303869
aI392665
aI392341
aI179559
aI19812
aI218985
aI357676
aI240426
aI54960
aI177112
aI180279
aI49267
aI143212
aI321611
aI149670
aI69592
aI262051
aI401122
aI64609
aI58971
aI208930
aI147191
aI55823
aI276393
aI167776
aI259690
aI232439
aI262733
aI365507
aI97413
aI213418
aI209153
aI108574
aI192119
aI194763
aI49890
aI402640
aI91564
aI360165
aI139350
aI267632
aI23640
aI125190
aI278592
aI76305
aI292226
aI323327
aI255206
aI4417
aI193718
aI15420
aI54471
aI56800
aI19533
aI296958
aI76765
aI135344
aI68510
aI328275
aI137813
aI114605
aI142452
aI1166
aI20036
aI152785
aI235424
aI314267
aI280414
aI360986
aI190149
aI123148
aI220486
aI219932
aI182231
aI133474
aI390562
aI350057
aI315022
aI268834
aI291793
aI39501
aI97244
aI133280
aI274288
aI216055
aI268691
aI158369
aI382610
aI60953
aI174092
aI54981
aI163141
aI215341
aI349026
aI14679
aI17430
aI378847
aI43852
aI322587
aI236298
aI385396
aI872
aI255278
aI321717
aI182687
aI359508
aI380677
aI242376
aI390586
aI284095
aI78178
aI9595
aI322445
aI50611
aI72247
aI233349
aI128383
aI208910
aI64658
aI319056
aI330988
aI131686
aI165607
aI253775
aI215710
aI311216
aI291420
aI209087
aI327716
aI268524
aI79066
aI37388
aI33374
aI63072
aI203620
aI296407
aI18325
aI287662
aI96512
aI25869
aI39782
aI131291
aI119682
aI192148
aI326881
aI166317
aI375925
aI307771
aI200366
aI390912
aI311876
aI309051
aI79264
aI351813
aI50411
aI384160
aI319878
aI271969
aI31434
aI167535
aI160889
aI197467
aI283917
aI184005
aI323336
aI318012
aI48929
aI311764
aI373911
aI307454
aI184251
aI292826
aI22824
aI248630
aI186779
aI328739
aI233344
aI226901
aI346520
aI310157
aI117760
aI375360
aI66012
aI4018
aI302564
aI357754
aI342879
aI241901
aI219814
aI130962
aI82994
aI4753
aI179925
aI347287
aI56990
aI93421
aI161304
aI196077
aI334970
aI114503
aI312226
aI396687
aI46361
aI144346
aI346568
aI348405
aI38628
aI130654
aI393051
aI257588
aI360560
aI106422
aI179937
aI51953
aI137929
aI80699
aI301773
aI329755
aI34071
aI232339
aI226166
aI388204
aI372477
aI359179
aI231299
aI384906
aI253083
aI11145
aI16128
aI357829
aI396194
aI178113
aI183784
aI288901
aI123222
aI285448
aI294777
aI282364
aI368432
aI122168
aI159734
aI313570
aI370198
aI140350
aI116994
aI90713
aI223452
aI139975
aI71500
aI86259
aI231931
aI226566
aI288751
aI4149
aI376665
aI169558
aI222401
aI164942
aI265898
aI158378
aI246275
aI321005
aI134427
aI19588
aI313306
aI78650
aI19700
aI366935
aI349805
aI134287
aI232821
aI162135
aI317459
aI101321
aI372044
aI46367
aI159413
aI346188
aI158209
aI78447
aI88226
aI172722
aI315976
aI366912
aI315215
aI280818
aI93846
aI790
aI102147
aI376146
aI271253
aI35039
aI183742
aI229273
aI135053
aI300818
aI174421
aI81735
aI108617
aI220279
aI103857
aI53671
aI120062
aI289480
aI73930
aI215319
aI321044
aI90587
aI77077
aI73459
aI242323
aI285253
aI198332
aI176797
aI323138
aI150484
aI69155
aI334268
aI179328
aI70965
aI388051
aI316816
aI314158
aI126397
aI244344
aI378307
aI223568
aI321711
aI165379
aI205658
aI72305
aI261264
aI58467
aI380252
aI107785
aI273873
aI251075
aI232980
aI70290
aI390552
aI102211
aI401742
aI302895
aI239373
aI305245
aI135254
aI197485
aI353000
aI187510
aI176293
aI191708
aI59890
aI276002
aI74434
aI96217
aI399350
aI67212
aI341354
aI291699
aI158004
aI145913
aI233353
aI351702
aI134182
aI377280
aI333905
aI110067
aI92970
aI212683
aI187931
aI149160
aI61685
aI193023
aI322946
aI242552
aI193322
aI266538
aI94250
aI8420
aI76225
aI311057
aI219889
aI283980
aI218455
aI263561
aI280305
aI39967
aI391084
aI63775
aI316703
aI329060
aI246477
aI277986
aI127772
aI95045
aI83367
aI48092
aI145489
aI380913
aI186340
aI246224
aI309632
aI75251
aI49449
aI178155
aI10166
aI124104
aI394881
aI245973
aI33549
aI59159
aI336288
aI141226
aI125372
aI393806
aI386007
aI93515
aI8834
aI280822
aI368117
aI370265
aI365346
aI93979
aI23478
aI344098
aI1464
aI150905
aI135315
aI346150
aI381085
aI355101
aI382742
aI26388
aI165205
aI51328
aI329872
aI334511
aI390920
aI44274
aI97278
aI141405
aI83476
aI146187
aI324015
aI395029
aI315011
aI243036
aI302087
aI98252
aI345634
aI5652
aI350416
aI357520
aI18278
aI146307
aI185944
aI158359
aI260332
aI186625
aI265130
aI172434
aI312284
aI331718
aI338362
aI194240
aI273929
aI262228
aI289610
aI268474
aI240479
aI135533
aI277572
aI189014
aI240250
aI69627
aI337703
aI41775
aI21881
aI188710
aI89124
aI202201
aI229948
aI372243
aI383471
aI131967
aI332352
aI26614
aI327865
aI127898
aI121205
aI233184
aI49138
aI255440
aI175243
aI314142
aI68786
aI319315
aI299655
aI338610
aI85951
aI319307
aI27498
aI267267
aI216279
aI353525
aI97104
aI337644
aI274764
aI321724
aI112510
aI135663
aI51082
aI162732
aI353043
aI400618
aI278456
aI278795
aI370487
aI229688
aI174537
aI63314
aI159378
aI38287
aI138149
aI55634
aI373285
aI154724
aI91557
aI112778
aI323541
aI135455
aI42946
aI174260
aI14607
aI298689
aI362979
aI7825
aI384031
aI126616
aI98053
aI360513
aI194811
aI50538
aI224508
aI41295
aI238891
aI93362
aI230962
aI6868
aI78289
aI253772
aI59680
aI232217
aI400066
aI208801
aI17196
aI228565
aI89179
aI354966
aI36783
aI327665
aI193683
aI336905
aI65893
aI273884
aI383778
aI321383
aI20714
aI9672
aI252390
aI241227
aI7011
aI371792
aI149777
aI231468
aI245232
aI284140
aI113367
aI293676
aI92771
aI293085
aI388506
aI348992
aI254103
aI58288
aI163935
aI357998
aI10928
aI192226
aI358305
aI309398
aI186525
aI19017
aI92516
aI347576
aI314628
aI391838
aI235107
aI24486
aI184233
aI177068
aI225573
aI390329
aI328774
aI194788
aI69393
aI160142
aI81840
aI155945
aI238542
aI200592
aI72016
aI119881
aI293881
aI130525
aI378827
aI140368
aI247418
aI247114
aI10400
aI345823
aI157440
aI255694
aI281981
aI265421
aI79058
aI187292
aI226041
aI182081
aI209123
aI270597
aI253465
aI374226
aI228021
aI291288
aI5481
aI45827
aI301744
aI45510
aI193124
aI216664
aI304009
aI173401
aI113801
aI153575
aI159535
aI288237
aI146329
aI111412
aI201867
aI294356
aI202029
aI246339
aI150914
aI186912
aI302666
aI46297
aI349710
aI84856
aI251200
aI187122
aI103212
aI24762
aI363787
aI223084
aI33663
aI208179
aI23049
aI82901
aI123822
aI161575
aI327948
aI106331
aI47603
aI381049
aI379291
aI309283
aI62268
aI127853
aI280809
aI175112
aI178180
aI193917
aI91788
aI351607
aI174444
aI357132
aI283042
aI96443
aI322659
aI182770
aI94325
aI162804
aI401791
aI12758
aI133491
aI181084
aI288075
aI59468
aI123988
aI230272
aI239316
aI276305
aI16952
aI285059
aI226914
aI180510
aI206430
aI80732
aI271259
aI12085
aI67324
aI30778
aI239892
aI300132
aI28884
aI330018
aI392312
aI144686
aI301721
aI194936
aI151686
aI189589
aI25720
aI173502
aI159736
aI372499
aI193247
aI261760
aI332851
aI98473
aI63813
aI232502
aI384412
aI186186
aI349581
aI382588
aI28892
aI136130
aI67119
aI333899
aI324966
aI172742
aI244791
aI397315
aI283635
aI195214
aI232087
aI268262
aI293695
aI14320
aI206583
aI351166
aI24246
aI65239
aI303142
aI253402
aI290417
aI284209
aI342889
aI76138
aI97990
aI227497
aI298680
aI269701
aI273709
aI109097
aI236832
aI216233
aI353491
aI399068
aI262033
aI392121
aI13617
aI34812
aI109504
aI18863
aI87754
aI361063
aI47036
aI259672
aI92618
aI200105
aI228108
aI101059
aI41554
aI236944
aI295721
aI140082
aI7425
aI36558
aI276270
aI39266
aI149876
aI373011
aI331452
aI232303
aI310772
aI328091
aI394517
aI264136
aI146631
aI159816
aI278229
aI6521
aI119934
aI5630
aI332107
aI383186
aI187081
aI118712
aI15535
aI34540
aI274414
aI210054
aI310100
aI233248
aI42658
aI156261
aI123347
aI212182
aI102163
aI228716
aI273611
aI259978
aI110258
aI181240
aI158073
aI327239
aI332512
aI334843
aI232071
aI373616
aI387980
aI285359
aI76637
aI69723
aI157840
aI98367
aI387200
aI370295
aI248532
aI131889
aI259801
aI299555
aI305390
aI359591
aI73198
aI117153
aI145421
aI304785
aI378645
aI323824
aI70531
aI316879
aI216049
aI362711
aI294549
aI293228
aI301665
aI61466
aI344165
aI19229
aI314198
aI379914
aI309009
aI250184
aI204639
aI222061
aI24432
aI361559
aI132639
aI62884
aI342140
aI21855
aI186676
aI191067
aI225693
aI9724
aI133732
aI112810
aI321138
aI100032
aI177165
aI164618
aI243965
aI342179
aI269048
aI58232
aI158188
aI48951
aI230298
aI252715
aI69575
aI366114
aI28826
aI78630
aI368410
aI341880
aI189506
aI196452
aI39382
aI396897
aI66850
aI305961
aI86774
aI10216
aI150008
aI105249
aI313034
aI146403
aI27891
aI357991
aI170919
aI78674
aI141365
aI67996
aI334497
aI107440
aI84720
aI335546
aI333969
aI357843
aI211725
aI344275
aI293070
aI155056
aI126262
aI275434
aI90763
aI261539
aI271828
aI202821
aI263508
aI3073
aI337030
aI344182
aI251358
aI308674
aI79516
aI314575
aI133124
aI152649
aI228686
aI21251
aI199490
aI2288
aI59433
aI344070
aI119128
aI366653
aI320838
aI21495
aI35650
aI61948
aI252432
aI146594
aI33151
aI304899
aI143989
aI314775
aI56499
aI208635
aI168642
aI312654
aI33634
aI290846
aI340859
aI204084
aI32102
aI79206
aI220293
aI403660
aI174912
aI318174
aI371047
aI26177
aI333068
aI255215
aI102798
aI8209
aI242102
aI368320
aI271271
aI342729
aI86711
aI53670
aI340490
aI13072
aI126094
aI142400
aI268806
aI387305
aI379286
aI174365
aI368282
aI300710
aI187697
aI167504
aI202496
aI216569
aI178025
aI27144
aI6392
aI401115
aI394361
aI379888
aI21722
aI48671
aI94456
aI310404
aI80290
aI150104
aI343242
aI341527
aI385949
aI173251
aI376179
aI315376
aI181794
aI48586
aI183273
aI220799
aI162147
aI120810
aI374951
aI325832
aI236351
aI104299
aI159986
aI136110
aI349068
aI307803
aI276867
aI206471
aI370365
aI70476
aI295806
aI286028
aI310679
aI2157
aI205854
aI266618
aI338609
aI112612
aI144091
aI13588
aI166611
aI215782
aI51236
aI191425
aI183446
aI203540
aI354363
aI188122
aI189496
aI168558
aI120989
aI188470
aI286753
aI70114
aI61046
aI59013
aI203201
aI28265
aI356073
aI301281
aI255064
aI158765
aI199534
aI76349
aI16682
aI30419
aI72887
aI282947
aI271578
aI32638
aI343081
aI114095
aI311464
aI16158
aI378657
aI158318
aI9649
aI237980
aI248837
aI287859
aI172770
aI66929
aI202170
aI306484
aI343999
aI380163
aI355405
aI41466
aI169723
aI22025
aI272262
aI247914
aI255542
aI103299
aI210630
aI66165
aI374578
aI144635
aI315098
aI288506
aI29104
aI161995
aI148637
aI312369
aI24458
aI11565
aI162131
aI133924
aI7255
aI319285
aI305188
aI281706
aI159919
aI107907
aI398922
aI306494
aI330728
aI179097
aI95769
aI240224
aI211119
aI196758
aI352202
aI40246
aI277574
aI168884
aI185474
aI225754
aI356054
aI17762
aI142714
aI307914
aI357670
aI366375
aI11028
aI112660
aI76904
aI288148
aI290670
aI69982
aI252531
aI87972
aI305440
aI270348
aI320977
aI59479
aI165813
aI266577
aI244127
aI148502
aI338885
aI321546
aI275117
aI199745
aI382339
aI20145
aI236028
aI237312
aI346654
aI240741
aI26515
aI18958
aI154468
aI208845
aI379731
aI388524
aI382651
aI134600
aI179901
aI34900
aI67605
aI258490
aI264518
aI237035
aI144980
aI363687
aI85715
aI97116
aI73667
aI199770
aI282095
aI304995
aI46651
aI386019
aI84806
aI377316
aI197578
aI248322
aI315575
aI401779
aI162925
aI99296
aI86676
aI156405
aI199537
aI93193
aI56588
aI48297
aI213716
aI259406
aI377471
aI154732
aI90853
aI170629
aI1544
aI234481
aI381815
aI43735
aI117688
aI339070
aI280978
aI202736
aI81548
aI154053
aI327707
aI322559
aI287405
aI250792
aI328442
aI42572
aI251238
aI27506
aI167884
aI381831
aI49822
aI47387
aI80817
aI74239
aI46608
aI382985
aI180649
aI104487
aI310545
aI213337
aI275629
aI55096
aI173997
aI187325
aI207490
aI139495
aI97253
aI50258
aI79116
aI120826
aI153137
aI216532
aI314006
aI120476
aI310863
aI272748
aI383132
aI89113
aI79747
aI8086
aI280302
aI397650
aI364546
aI400960
aI97127
aI203595
aI197167
aI260493
aI319486
aI238436
aI130078
aI207023
aI6431
aI1218
aI293833
aI157212
aI302968
aI180970
aI2789
aI7136
aI342731
aI368695
aI181872
aI332712
aI392893
aI351610
aI230287
aI374002
aI270221
aI242472
aI378537
aI303980
aI237443
aI129301
aI78050
aI93461
aI75980
aI339437
aI136207
aI175272
aI323592
aI267959
aI402733
aI71323
aI40680
aI281926
aI177701
aI346610
aI395359
aI42494
aI342604
aI206769
aI261807
aI118158
aI233927
aI231663
aI287781
aI388394
aI277419
aI344204
aI37296
aI84503
aI80183
aI90247
aI155398
aI16232
aI373034
aI352395
aI182711
aI132971
aI227396
aI340353
aI268264
aI153763
aI168440
aI193970
aI40038
aI344256
aI141116
aI44241
aI91784
aI131401
aI114571
aI95200
aI224177
aI117830
aI79601
aI272081
aI60793
aI127964
aI395171
aI299221
aI217153
aI209185
aI6223
aI344103
aI223400
aI334209
aI5608
aI278736
aI267315
aI287657
aI272054
aI137855
aI149097
aI45952
aI270591
aI59792
aI93872
aI314703
aI307283
aI91064
aI37315
aI338396
aI87181
aI369996
aI281636
aI77755
aI59407
aI281992
aI297827
aI57009
aI175668
aI284799
aI182967
aI284520
aI50463
aI366788
aI59012
aI397806
aI246157
aI354616
aI233129
aI140694
aI273437
aI208516
aI215040
aI344044
aI58786
aI196848
aI82442
aI300085
aI230817
aI93726
aI49434
aI369522
aI254724
aI404092
aI371432
aI336345
aI56375
aI272071
aI9701
aI321708
aI404272
aI59623
aI294078
aI278091
aI33087
aI155175
aI245066
aI287200
aI174556
aI77065
aI304317
aI246603
aI65014
aI332237
aI237156
aI269224
aI179673
aI140096
aI99204
aI121286
aI146039
aI161904
aI344786
aI328496
aI33344
aI357950
aI58604
aI297561
aI50844
aI254463
aI106793
aI12365
aI164758
aI248102
aI69138
aI154035
aI261855
aI326095
aI50120
aI318951
aI25005
aI323970
aI29779
aI124797
aI248479
aI191607
aI63331
aI146884
aI314938
aI160394
aI162958
aI238385
aI168301
aI69739
aI340925
aI296928
aI373530
aI320089
aI398228
aI396896
aI156061
aI337477
aI310622
aI382258
aI47946
aI276785
aI359630
aI166492
aI334412
aI84893
aI4307
aI221001
aI42807
aI272133
aI49542
aI335475
aI233516
aI398485
aI246917
aI398783
aI107776
aI394102
aI343917
aI22580
aI163394
aI394589
aI271797
aI319756
aI91273
aI96361
aI238666
aI261626
aI352429
aI370753
aI103534
aI373721
aI271289
aI4830
aI189042
aI19958
aI202371
aI218711
aI383385
aI383087
aI401392
aI18957
aI324332
aI404095
aI288974
aI14682
aI350963
aI305191
aI141371
aI62259
aI271899
aI105853
aI78165
aI94752
aI244535
aI254338
aI102926
aI230829
aI315890
aI223882
aI312035
aI235824
aI75764
aI4033
aI258917
aI34414
aI62710
aI240249
aI51317
aI267772
aI198595
aI323588
aI15434
aI258444
aI51876
aI186728
aI270526
aI402839
aI177653
aI373503
aI283200
aI386958
aI91272
aI366142
aI318376
aI317342
aI246610
aI131583
aI243990
aI399413
aI31757
aI338776
aI232891
aI139145
aI250902
aI210953
aI249156
aI247407
aI9857
aI106554
aI336900
aI285875
aI249700
aI151800
aI172981
aI223310
aI393229
aI26120
aI113919
aI220551
aI95634
aI114801
aI79148
aI135952
aI117552
aI20762
aI125890
aI291073
aI189987
aI240932
aI45006
aI260781
aI79185
aI289139
aI346274
aI76672
aI228571
aI121092
aI102708
aI166614
aI52975
aI264104
aI339941
aI102086
aI85501
aI52834
aI212295
aI207014
aI348250
aI177250
aI378290
aI274791
aI295495
aI198904
aI76622
aI25919
aI219960
aI108135
aI85037
aI325229
aI281155
aI101097
aI51471
aI388743
aI45719
aI123609
aI120802
aI184247
aI306845
aI74768
aI284478
aI312474
aI31126
aI155008
aI277318
aI317094
aI48069
aI170317
aI358482
aI258016
aI324834
aI288596
aI262152
aI263218
aI194932
aI352110
aI398980
aI224920
aI63410
aI115671
aI380325
aI176498
aI49571
aI387827
aI209869
aI225011
aI229859
aI13316
aI139024
aI299606
aI195577
aI196151
aI74876
aI16571
aI51608
aI1786
aI199326
aI47127
aI65444
aI295539
aI327485
aI345044
aI240210
aI7670
aI186517
aI380722
aI181691
aI227328
aI93669
aI85979
aI378066
aI33615
aI41615
aI289469
aI49289
aI136444
aI61058
aI79761
aI278785
aI104286
aI359247
aI124798
aI318893
aI11749
aI119213
aI296665
aI357836
aI168925
aI285709
aI376496
aI119951
aI280827
aI242333
aI377937
aI350480
aI166131
aI57342
aI323979
aI146739
aI230529
aI308181
aI132437
aI2221
aI353299
aI91900
aI122107
aI173837
aI160030
aI275205
aI279316
aI290111
aI41029
aI171620
aI104888
aI369117
aI267510
aI370991
aI264153
aI173690
aI79108
aI370627
aI285079
aI397712
aI335148
aI195421
aI36291
aI146299
aI96065
aI331321
aI96713
aI294039
aI311226
aI161539
aI256501
aI284941
aI263501
aI293825
aI160902
aI31615
aI369398
aI397127
aI274637
aI186399
aI178221
aI381278
aI140280
aI236376
aI23551
aI325109
aI121095
aI274181
aI354101
aI317913
aI271022
aI53601
aI161416
aI373536
aI56776
aI345205
aI319234
aI323693
aI247225
aI234283
aI388531
aI172210
aI342148
aI85435
aI326310
aI67391
aI38680
aI285594
aI226896
aI390060
aI230669
aI165197
aI20026
aI282643
aI348106
aI180224
aI139349
aI102173
aI17757
aI362964
aI183581
aI329762
aI213637
aI150330
aI72796
aI215715
aI86267
aI352933
aI357062
aI336047
aI91757
aI382119
aI303789
aI228886
aI73472
aI252342
aI322842
aI307661
aI24380
aI191356
aI236742
aI209127
aI23081
aI293607
aI224321
aI247642
aI193439
aI71989
aI121362
aI201311
aI295597
aI347912
aI402790
aI37880
aI37396
aI32143
aI71793
aI325982
aI105150
aI198226
aI28601
aI115678
aI221929
aI392837
aI54181
aI100451
aI25548
aI136864
aI190167
aI286981
aI109576
aI392011
aI221463
aI72603
aI326989
aI251162
aI211843
aI32327
aI94195
aI287073
aI273048
aI286424
aI392832
aI64872
aI246376
aI296430
aI361952
aI22889
aI44940
aI261168
aI18903
aI78205
aI64028
aI164439
aI366559
aI255538
aI215183
aI274447
aI156624
aI47293
aI216924
aI247881
aI289725
aI225380
aI204091
aI63460
aI307943
aI360867
aI197058
aI28010
aI241991
aI315021
aI166350
aI395239
aI197248
aI272971
aI97097
aI7552
aI56465
aI403048
aI169700
aI89418
aI86063
aI344938
aI337602
aI114297
aI3686
aI395830
aI255907
aI15628
aI176935
aI101455
aI284394
aI85576
aI118112
aI362716
aI64222
aI305312
aI18219
aI53135
aI364921
aI251836
aI233483
aI259384
aI184450
aI248710
aI64651
aI25395
aI342319
aI128094
aI68292
aI148678
aI213131
aI305547
aI24329
aI135539
aI14673
aI33779
aI11917
aI330069
aI302437
aI394117
aI47505
aI88572
aI351877
aI78541
aI90521
aI60796
aI189379
aI129683
aI319230
aI109144
aI296095
aI127008
aI103059
aI250848
aI283916
aI58586
aI82704
aI309608
aI373491
aI359691
aI135325
aI322268
aI16150
aI40389
aI60201
aI226417
aI209306
aI198157
aI84481
aI47166
aI51529
aI330933
aI393958
aI293941
aI44539
aI68932
aI358330
aI9140
aI75306
aI7224
aI66160
aI96731
aI199241
aI116182
aI276643
aI104579
aI76763
aI178599
aI170978
aI228552
aI131099
aI314294
aI129904
aI46930
aI60855
aI383353
aI170005
aI318184
aI352400
aI152110
aI141280
aI270722
aI247117
aI282876
aI26486
aI79478
aI62596
aI166318
aI278635
aI364248
aI308572
aI188741
aI234714
aI42747
aI120497
aI353031
aI118153
aI220909
aI15347
aI372704
aI253142
aI340817
aI343100
aI340814
aI316928
aI206748
aI345466
aI97152
aI135174
aI30827
aI375437
aI278384
aI24042
aI32017
aI231624
aI336685
aI97351
aI17406
aI367696
aI271249
aI353308
aI91214
aI106693
aI266211
aI185353
aI29884
aI111476
aI141386
aI143051
aI322899
aI277531
aI119843
aI180581
aI308064
aI96398
aI84361
aI254249
aI293423
aI318307
aI231558
aI279503
aI355538
aI95136
aI202077
aI45585
aI198376
aI265461
aI275480
aI222162
aI331591
aI3641
aI166050
aI313039
aI398405
aI132122
aI183707
aI254666
aI301167
aI216618
aI27322
aI129165
aI281303
aI72426
aI100597
aI227702
aI334960
aI316154
aI235884
aI333258
aI213488
aI263045
aI70762
aI253548
aI33474
aI262407
aI387333
aI82266
aI174175
aI13168
aI130774
aI29650
aI352233
aI214482
aI375624
aI179515
aI59798
aI209500
aI297539
aI141311
aI84622
aI254125
aI2813
aI53232
aI43935
aI381080
aI212800
aI317498
aI33604
aI316055
aI18045
aI392801
aI129175
aI236544
aI346926
aI42195
aI333668
aI278263
aI176579
aI153547
aI400461
aI138221
aI102720
aI169084
aI184680
aI368850
aI344812
aI378678
aI258349
aI17533
aI51086
aI376605
aI248809
aI272067
aI252285
aI190612
aI162944
aI275706
aI322379
aI356400
aI149303
aI344257
aI294946
aI144912
aI354776
aI345765
aI180906
aI171051
aI124472
aI203661
aI298330
aI351119
aI207830
aI232481
aI202661
aI140462
aI272070
aI51508
aI326612
aI144404
aI270926
aI354638
aI338796
aI359526
aI68413
aI209120
aI211832
aI44845
aI328191
aI60724
aI311824
aI113600
aI80235
aI268946
aI63348
aI367027
aI381164
aI143376
aI82860
aI205389
aI2237
aI162392
aI224609
aI70063
aI171537
aI382711
aI62793
aI63148
aI205437
aI217508
aI173798
aI68400
aI233496
aI300416
aI277268
aI227202
aI40808
aI345139
aI250226
aI141360
aI114496
aI215113
aI81740
aI353118
aI331574
aI68991
aI74413
aI269596
aI302909
aI321993
aI311789
aI164940
aI301877
aI287854
aI187982
aI199976
aI98378
aI71473
aI98568
aI152703
aI109748
aI132418
aI71426
aI398470
aI376526
aI94882
aI373492
aI76841
aI368053
aI343116
aI109646
aI154337
aI78032
aI261415
aI367985
aI83656
aI354900
aI177984
aI253738
aI370784
aI266950
aI261749
aI255911
aI285995
aI354767
aI288610
aI309409
aI184502
aI340711
aI45558
aI138773
aI15232
aI23395
aI131268
aI144494
aI122582
aI367243
aI403434
aI51713
aI18397
aI36258
aI48830
aI254088
aI171784
aI260599
aI110826
aI24829
aI399651
aI337877
aI201641
aI19918
aI355733
aI286353
aI230702
aI222382
aI198658
aI27137
aI175735
aI88155
aI149162
aI281013
aI251508
aI207310
aI134371
aI233082
aI59316
aI226467
aI390231
aI61168
aI275756
aI90791
aI343984
aI247849
aI117415
aI399763
aI382333
aI329049
aI92619
aI376641
aI262930
aI350656
aI220268
aI240507
aI256898
aI289489
aI132476
aI31849
aI253463
aI162094
aI189581
aI261010
aI368785
aI357695
aI61635
aI300894
aI234041
aI142336
aI313310
aI53873
aI257515
aI67900
aI366542
aI64341
aI164641
aI242634
aI192281
aI80475
aI327473
aI358948
aI95124
aI10023
aI161975
aI14677
aI362485
aI256483
aI313241
aI218381
aI69210
aI257223
aI166709
aI207901
aI15080
aI393877
aI334638
aI75849
aI201993
aI39231
aI394010
aI73955
aI202581
aI206358
aI301537
aI285154
aI373105
aI9467
aI182929
aI259334
aI262978
aI3343
aI308285
aI118949
aI68809
aI379685
aI300065
aI110474
aI322591
aI131201
aI235634
aI234225
aI216883
aI87815
aI367564
aI7174
aI228992
aI239037
aI23197
aI188405
aI299299
aI364469
aI397728
aI74717
aI211908
aI336714
aI171456
aI345368
aI169620
aI284652
aI203669
aI89992
aI182815
aI119375
aI223336
aI266509
aI323237
aI352835
aI269987
aI308451
aI157427
aI355403
aI266500
aI31282
aI92485
aI108112
aI155864
aI361702
aI57
aI121432
aI180275
aI372872
aI97132
aI180773
aI35450
aI58301
aI272236
aI26570
aI3845
aI315080
aI26113
aI296147
aI235552
aI244244
aI266990
aI229747
aI90297
aI23705
aI138284
aI392714
aI362804
aI18414
aI247867
aI112382
aI275280
aI19982
aI334399
aI183819
aI268216
aI171480
aI106471
aI275211
aI363587
aI356210
aI334051
aI97709
aI256630
aI5560
aI350112
aI196307
aI263875
aI396362
aI101052
aI283831
aI210277
aI380649
aI334643
aI106387
aI124790
aI262391
aI369569
aI35667
aI197639
aI23775
aI90482
aI17064
aI399877
aI228319
aI284613
aI147073
aI70935
aI281728
aI222424
aI314804
aI62943
aI325657
aI264731
aI394316
aI212813
aI41271
aI96041
aI318218
aI25079
aI91598
aI372646
aI269420
aI51407
aI369104
aI337345
aI229280
aI290173
aI281611
aI381519
aI110250
aI244871
aI124041
aI368146
aI289185
aI198327
aI347738
aI238895
aI278418
aI208124
aI40788
aI346372
aI300515
aI16547
aI396649
aI210960
aI308442
aI307786
aI403105
aI113549
aI250763
aI175740
aI114539
aI246107
aI318276
aI57712
aI156462
aI180861
aI250588
aI219072
aI330804
aI186120
aI274119
aI286322
aI356919
aI156796
aI257683
aI226774
aI264699
aI181069
aI241036
aI125379
aI151120
aI216765
aI97398
aI317768
aI90626
aI99636
aI166807
aI176122
aI115253
aI305859
aI131011
aI84532
aI297484
aI82547
aI382584
aI365154
aI341419
aI127800
aI355588
aI132669
aI323394
aI92156
aI9064
aI308047
aI128112
aI231699
aI104995
aI59395
aI359092
aI206668
aI44626
aI220998
aI131600
aI125556
aI29567
aI208761
aI108966
aI102238
aI213567
aI57644
aI771
aI209643
aI162801
aI344949
aI257331
aI37930
aI259807
aI338407
aI379668
aI233433
aI136817
aI234611
aI288925
aI330006
aI388703
aI240637
aI357958
aI297896
aI363784
aI327034
aI111710
aI186288
aI239933
aI223261
aI160894
aI238127
aI246841
aI153219
aI294482
aI171606
aI299574
aI271497
aI322292
aI86922
aI139883
aI76121
aI330966
aI203490
aI307663
aI307725
aI273808
aI281171
aI37045
aI23432
aI359262
aI261361
aI355804
aI76613
aI370626
aI143790
aI199081
aI55744
aI226267
aI249063
aI193661
aI330377
aI128446
aI65711
aI310830
aI46271
aI129358
aI392330
aI349861
aI90691
aI361134
aI136670
aI371067
aI16851
aI385615
aI99380
aI216021
aI238414
aI382660
aI229185
aI126133
aI326247
aI358725
aI313784
aI62864
aI41941
aI225046
aI233474
aI274376
aI352968
aI358039
aI351803
aI241140
aI30168
aI400092
aI26790
aI69732
aI160559
aI236762
aI239620
aI198137
aI78243
aI81278
aI268596
aI180165
aI320455
aI309394
aI334752
aI218974
aI117179
aI390263
aI328921
aI1033
aI139793
aI251877
aI46862
aI299269
aI7384
aI382217
aI384793
aI1449
aI237521
aI74898
aI264643
aI285808
aI132347
aI47894
aI242123
aI289882
aI10323
aI153848
aI276731
aI244616
aI21093
aI239133
aI213979
aI106825
aI323214
aI228419
aI88014
aI360234
aI399906
aI230227
aI404016
aI170291
aI393024
aI281161
aI30236
aI382244
aI323393
aI146855
aI202627
aI118981
aI335496
aI10247
aI50660
aI220888
aI140025
aI232971
aI108159
aI381007
aI273819
aI302815
aI207689
aI296438
aI66568
aI48669
aI45487
aI160057
aI129929
aI247592
aI234932
aI172853
aI232101
aI213079
aI190636
aI88892
aI6393
aI385737
aI176364
aI322470
aI395917
aI107158
aI111777
aI73771
aI373434
aI212611
aI115113
aI380600
aI326373
aI359710
aI91182
aI395481
aI184440
aI139632
aI105727
aI178673
aI84679
aI14523
aI7495
aI145871
aI15924
aI377355
aI30806
aI295739
aI214418
aI109329
aI247616
aI82258
aI152492
aI121786
aI160556
aI160284
aI133819
aI84623
aI116145
aI358492
aI193720
aI175600
aI310670
aI218448
aI347085
aI355874
aI365511
aI270317
aI397776
aI330429
aI392836
aI324388
aI310214
aI141524
aI167737
aI348206
aI143482
aI7270
aI34210
aI38609
aI254216
aI35507
aI122628
aI22301
aI333337
aI133523
aI185177
aI392154
aI276287
aI66942
aI306517
aI351986
aI357221
aI3307
aI399853
aI343944
aI346149
aI163764
aI342987
aI391216
aI295285
aI128214
aI171613
aI322378
aI109390
aI113264
aI397839
aI388930
aI380178
aI383996
aI263757
aI99810
aI112165
aI32974
aI184707
aI122469
aI120946
aI385811
aI106092
aI63860
aI304525
aI194113
aI260683
aI154257
aI332888
aI333397
aI177357
aI143699
aI28009
aI252556
aI336374
aI228730
aI393706
aI45318
aI14434
aI279641
aI72308
aI131111
aI188682
aI98680
aI243809
aI146880
aI219569
aI1676
aI186725
aI194413
aI32237
aI120512
aI66201
aI19854
aI212405
aI317537
aI34661
aI22604
aI92986
aI287549
aI53421
aI231069
aI287492
aI244088
aI116706
aI381952
aI107006
aI61227
aI272616
aI338750
aI124786
aI296603
aI95999
aI223967
aI296774
aI106475
aI254483
aI32453
aI1759
aI139511
aI401447
aI58319
aI116153
aI65740
aI104364
aI35144
aI275343
aI262719
aI235257
aI372734
aI27966
aI272713
aI289232
aI197676
aI384169
aI182086
aI308848
aI116084
aI252513
aI314204
aI74224
aI171101
aI276157
aI81299
aI100199
aI326877
aI86653
aI377755
aI384804
aI142592
aI137917
aI191941
aI154036
aI131446
aI177016
aI199758
aI175352
aI384514
aI43404
aI13144
aI177593
aI152290
aI46944
aI16100
aI135625
aI124225
aI258271
aI185338
aI84826
aI285473
aI344031
aI190098
aI361647
aI339200
aI120319
aI115121
aI52762
aI400400
aI332011
aI332845
aI348714
aI122840
aI142036
aI370837
aI360325
aI271883
aI125429
aI156799
aI21368
aI2631
aI336105
aI27504
aI240028
aI170195
aI308272
aI326544
aI143757
aI206306
aI6743
aI299949
aI3088
aI229585
aI201008
aI249871
aI393167
aI265517
aI397653
aI114484
aI121702
aI307710
aI67358
aI275184
aI95393
aI159847
aI213376
aI133078
aI31276
aI30185
aI212094
aI140175
aI139880
aI98971
aI149810
aI207711
aI194983
aI93361
aI91521
aI172657
aI141892
aI64414
aI196470
aI272087
aI95846
aI98107
aI348535
aI339159
aI352260
aI215590
aI387340
aI325848
aI300283
aI328922
aI184591
aI193926
aI110245
aI403338
aI239487
aI74387
aI217617
aI299533
aI81699
aI373926
aI183331
aI232140
aI141209
aI154992
aI202072
aI179379
aI259941
aI355799
aI53362
aI128015
aI247462
aI318100
aI342169
aI96403
aI270387
aI233059
aI380643
aI304737
aI215136
aI72451
aI249718
aI29263
aI378560
aI139932
aI134235
aI303837
aI378134
aI203579
aI194158
aI321499
aI164453
aI150200
aI106112
aI246893
aI101926
aI318331
aI951
aI215352
aI96280
aI384405
aI199323
aI329964
aI147403
aI222573
aI313026
aI231570
aI350278
aI138195
aI243978
aI87919
aI205716
aI293054
aI369921
aI129318
aI377604
aI278549
aI333338
aI177909
aI186925
aI282890
aI250675
aI165337
aI359462
aI184714
aI358596
aI189891
aI26876
aI87453
aI253608
aI42638
aI226100
aI261111
aI296113
aI180222
aI389192
aI144989
aI96300
aI195127
aI131172
aI41966
aI313765
aI383640
aI155842
aI107064
aI8215
aI14259
aI270093
aI62567
aI335140
aI209086
aI125954
aI83593
aI101794
aI300869
aI217732
aI223030
aI177611
aI136422
aI21321
aI5154
aI31696
aI375951
aI143849
aI79755
aI139860
aI174632
aI345286
aI391045
aI243400
aI91148
aI32887
aI273585
aI155271
aI267543
aI388368
aI390619
aI24860
aI136126
aI81275
aI79292
aI88315
aI338417
aI317541
aI210246
aI375441
aI35054
aI87285
aI206548
aI218305
aI6352
aI258301
aI116043
aI207410
aI380170
aI331115
aI337944
aI344707
aI347408
aI161107
aI81281
aI73210
aI270540
aI348268
aI344848
aI42533
aI146558
aI280192
aI153104
aI198570
aI158569
aI367086
aI298978
aI348801
aI390623
aI389389
aI139004
aI187542
aI4042
aI269021
aI56521
aI2778
aI265667
aI211216
aI133166
aI61905
aI277957
aI302747
aI182960
aI243875
aI110028
aI62833
aI299121
aI394041
aI180085
aI114264
aI388099
aI310908
aI322458
aI279120
aI149799
aI87487
aI109170
aI402796
aI369418
aI219125
aI269393
aI52656
aI6848
aI34875
aI121797
aI58470
aI117840
aI224310
aI192859
aI351804
aI350239
aI393590
aI32497
aI200255
aI3654
aI300475
aI317665
aI154051
aI400570
aI237554
aI184222
aI268239
aI153651
aI233030
aI190411
aI101371
aI244040
aI6865
aI139861
aI205251
aI172713
aI113736
aI391904
aI19391
aI73249
aI247680
aI100387
aI305640
aI228065
aI99016
aI218256
aI38915
aI322060
aI34101
aI117579
aI212030
aI39045
aI252037
aI108257
aI354395
aI338136
aI158659
aI346121
aI20127
aI25552
aI347039
aI173710
aI350404
aI90493
aI296387
aI111619
aI348463
aI157188
aI19515
aI392767
aI1103
aI76339
aI28985
aI302186
aI193658
aI253784
aI7143
aI116618
aI82122
aI38146
aI340883
aI381306
aI162416
aI334360
aI109511
aI205813
aI298328
aI138180
aI60342
aI83234
aI44137
aI26225
aI397053
aI158047
aI118459
aI68370
aI71361
aI342126
aI171108
aI22470
aI342757
aI398040
aI200932
aI48049
aI165199
aI302645
aI97634
aI42888
aI244912
aI359549
aI56166
aI367172
aI186092
aI51726
aI263716
aI371165
aI130243
aI95116
aI172525
aI399102
aI318403
aI181263
aI192974
aI165870
aI392845
aI157969
aI297666
aI174104
aI29196
aI96153
aI256361
aI335464
aI258671
aI268464
aI208678
aI361839
aI398366
aI308763
aI191621
aI21281
aI128917
aI341512
aI35305
aI65825
aI123833
aI271714
aI9716
aI239495
aI37891
aI358697
aI74561
aI347361
aI277248
aI57376
aI91462
aI102231
aI372806
aI333084
aI254066
aI268902
aI323256
aI83401
aI167807
aI315576
aI114765
aI157260
aI332460
aI41019
aI61956
aI310025
aI154845
aI268731
aI100145
aI237927
aI254090
aI54927
aI114909
aI56580
aI42576
aI49942
aI359432
aI68150
aI201966
aI239188
aI239646
aI337204
aI5550
aI193595
aI224362
aI385839
aI222621
aI130175
aI273488
aI108424
aI267388
aI215069
aI49306
aI235614
aI306156
aI37841
aI44504
aI283320
aI349993
aI217356
aI56513
aI331417
aI258741
aI173782
aI166565
aI284234
aI132140
aI93827
aI36576
aI172791
aI347395
aI253779
aI94311
aI188826
aI353270
aI71709
aI260466
aI123857
aI20139
aI264102
aI133716
aI114844
aI274896
aI304116
aI1013
aI326484
aI366423
aI135313
aI218413
aI178076
aI188217
aI396246
aI268519
aI296044
aI27065
aI337143
aI138674
aI250860
aI100203
aI242360
aI218812
aI314452
aI69008
aI274587
aI91562
aI265557
aI353547
aI329470
aI326839
aI230184
aI107770
aI363150
aI118058
aI8192
aI397987
aI318856
aI311172
aI277244
aI291418
aI228092
aI84174
aI284173
aI32535
aI252506
aI137388
aI370746
aI9352
aI368254
aI324043
aI196044
aI265052
aI218904
aI137156
aI99376
aI371754
aI95335
aI141148
aI269525
aI57724
aI346754
aI117731
aI166490
aI262367
aI148955
aI184991
aI300567
aI276302
aI389770
aI276382
aI208583
aI182948
aI350248
aI90637
aI289033
aI305467
aI225058
aI387868
aI94124
aI169943
aI174532
aI1960
aI293826
aI83926
aI243429
aI48638
aI2761
aI130049
aI213150
aI60237
aI225912
aI374394
aI291780
aI49157
aI264898
aI86802
aI178988
aI96111
aI14915
aI338406
aI28981
aI346922
aI381938
aI177690
aI254523
aI341613
aI43240
aI362740
aI15142
aI239540
aI402226
aI89404
aI289738
aI3565
aI201466
aI58939
aI114080
aI87703
aI322891
aI329106
aI288953
aI212165
aI11908
aI328069
aI312482
aI15997
aI327166
aI261139
aI241117
aI322775
aI168621
aI362654
aI116552
aI224326
aI249978
aI327573
aI129725
aI264283
aI278279
aI79056
aI374120
aI182291
aI188450
aI101383
aI115241
aI364561
aI181854
aI353977
aI352149
aI139165
aI245556
aI91223
aI127551
aI291043
aI3711
aI357901
aI213427
aI92253
aI74453
aI105647
aI210128
aI73509
aI308172
aI243649
aI28144
aI387959
aI321908
aI43308
aI122206
aI264892
aI239515
aI11381
aI31332
aI136587
aI252295
aI317418
aI217019
aI106179
aI118829
aI254057
aI26738
aI120429
aI223630
aI119814
aI263043
aI75095
aI122452
aI334231
aI50352
aI314876
aI381106
aI299412
aI215951
aI10283
aI252945
aI82823
aI398555
aI313255
aI303490
aI36968
aI313366
aI358326
aI51080
aI230496
aI191164
aI133553
aI128268
aI60709
aI242586
aI169026
aI380381
aI346629
aI292633
aI113147
aI96645
aI10020
aI114043
aI87533
aI64927
aI220591
aI253468
aI55679
aI311534
aI344932
aI306777
aI315755
aI205984
aI43601
aI225368
aI199274
aI133233
aI7004
aI396460
aI265243
aI54359
aI27214
aI169056
aI43848
aI222858
aI192713
aI403
aI273250
aI38735
aI327752
aI333666
aI37539
aI125416
aI333914
aI195757
aI312557
aI60578
aI296803
aI87584
aI234962
aI264574
aI150762
aI206149
aI25932
aI56352
aI286655
aI181099
aI23273
aI51415
aI218067
aI338150
aI158849
aI190678
aI301908
aI180156
aI185486
aI55511
aI240794
aI282203
aI396502
aI324025
aI32386
aI295809
aI18826
aI69257
aI41292
aI395684
aI169878
aI131212
aI96935
aI73387
aI181522
aI169608
aI400125
aI90605
aI2641
aI317557
aI27968
aI153151
aI4465
aI109410
aI33251
aI350805
aI373546
aI338034
aI402060
aI160219
aI83088
aI163802
aI184891
aI393194
aI151764
aI240478
aI242625
aI108719
aI239883
aI325907
aI122845
aI307982
aI75976
aI342108
aI399481
aI296532
aI376171
aI183265
aI192716
aI199455
aI99421
aI78521
aI192501
aI375202
aI240618
aI126700
aI141829
aI182749
aI285260
aI125563
aI108057
aI109004
aI196512
aI192504
aI92486
aI7135
aI129871
aI233424
aI75198
aI167721
aI284504
aI131874
aI172004
aI296501
aI170154
aI154997
aI42919
aI360771
aI389348
aI87707
aI329220
aI303251
aI342914
aI340530
aI255977
aI320117
aI231542
aI203000
aI125717
aI23402
aI88046
aI115286
aI206317
aI162526
aI162792
aI175231
aI159587
aI156531
aI289134
aI171062
aI212152
aI158435
aI62725
aI119232
aI255993
aI195283
aI128022
aI244622
aI282663
aI140319
aI226005
aI205816
aI45503
aI62927
aI305833
aI400117
aI283736
aI97342
aI282863
aI260797
aI73899
aI223648
aI276091
aI6228
aI102064
aI136851
aI46981
aI316830
aI254134
aI6981
aI171478
aI129134
aI87614
aI317216
aI127432
aI93480
aI239626
aI172868
aI164854
aI63502
aI41209
aI212063
aI227806
aI102894
aI133115
aI278947
aI192675
aI206472
aI280218
aI331795
aI290540
aI383937
aI160255
aI286488
aI25690
aI103028
aI278180
aI44398
aI215789
aI147832
aI340148
aI204987
aI164045
aI260824
aI100076
aI319183
aI393874
aI327323
aI169099
aI157489
aI332500
aI357238
aI133544
aI403776
aI221465
aI352448
aI192142
aI169883
aI218147
aI11623
aI333027
aI254715
aI203376
aI41929
aI130163
aI136500
aI190467
aI404049
aI351417
aI140743
aI127349
aI344636
aI380107
aI46128
aI271834
aI296282
aI121784
aI150782
aI197878
aI105919
aI354823
aI92022
aI68068
aI25306
aI235294
aI56131
aI166823
aI197896
aI201944
aI132588
aI205478
aI383547
aI235883
aI357435
aI320028
aI335724
aI158105
aI15564
aI58572
aI321144
aI43507
aI154433
aI86404
aI31619
aI268074
aI224422
aI66137
aI349845
aI250309
aI136560
aI386871
aI282506
aI152537
aI282378
aI260307
aI251422
aI200801
aI378493
aI212296
aI91755
aI126119
aI220449
aI171958
aI272975
aI68070
aI194837
aI318754
aI288504
aI395620
aI367324
aI85516
aI29734
aI20323
aI43010
aI28794
aI315401
aI56673
aI101408
aI346456
aI151191
aI88906
aI148714
aI104316
aI243596
aI180975
aI192616
aI248084
aI345599
aI101120
aI166792
aI283939
aI23711
aI212490
aI245383
aI275735
aI114597
aI181327
aI284884
aI243925
aI148466
aI66797
aI48650
aI103617
aI340901
aI254519
aI395859
aI337610
aI71716
aI242071
aI39575
aI51503
aI110897
aI306219
aI153837
aI263841
aI325745
aI351226
aI110685
aI173262
aI58928
aI188234
aI278092
aI100414
aI169781
aI233481
aI322422
aI129700
aI325890
aI260043
aI217755
aI73908
aI257329
aI66904
aI371751
aI112994
aI184939
aI194229
aI33202
aI288215
aI311127
aI259931
aI136969
aI63363
aI396330
aI248695
aI326415
aI59297
aI373577
aI355149
aI213922
aI3477
aI119319
aI287708
aI227895
aI343341
aI295886
aI254246
aI387387
aI23080
aI380464
aI167957
aI60643
aI176066
aI390511
aI334115
aI187484
aI332644
aI148102
aI57306
aI54934
aI220361
aI242936
aI294026
aI55579
aI245310
aI65841
aI49626
aI333858
aI197495
aI45437
aI321709
aI309554
aI216690
aI134066
aI218399
aI118113
aI70099
aI137196
aI137828
aI348248
aI35167
aI263978
aI14334
aI273323
aI144508
aI136963
aI47484
aI367857
aI325723
aI43395
aI111151
aI288484
aI289040
aI255830
aI13987
aI243789
aI308926
aI53285
aI351807
aI388038
aI94248
aI279858
aI399024
aI137846
aI125033
aI70244
aI90268
aI182257
aI140636
aI179360
aI236414
aI325499
aI357569
aI234720
aI323492
aI160310
aI183243
aI142537
aI7754
aI300140
aI396294
aI153115
aI287102
aI99315
aI191949
aI309115
aI20222
aI19120
aI356877
aI128523
aI385738
aI174211
aI146393
aI315596
aI239603
aI348522
aI369633
aI362650
aI45273
aI153171
aI179015
aI150471
aI296644
aI112218
aI151698
aI75269
aI233928
aI93896
aI214866
aI168923
aI224899
aI341995
aI88042
aI15145
aI26785
aI101296
aI49788
aI169085
aI388157
aI312732
aI339231
aI288135
aI378994
aI296810
aI168125
aI27473
aI17178
aI248440
aI278349
aI242933
aI113853
aI353150
aI3143
aI12410
aI46170
aI52680
aI118738
aI219540
aI296061
aI228123
aI39564
aI257226
aI190280
aI201554
aI69123
aI120087
aI75253
aI226876
aI139046
aI211874
aI328896
aI379021
aI51830
aI292817
aI275419
aI15286
aI146515
aI380397
aI122842
aI133894
aI316372
aI364940
aI196687
aI123646
aI127003
aI312403
aI68961
aI400825
aI250955
aI322578
aI20300
aI281503
aI400338
aI34204
aI304713
aI215963
aI374589
aI384806
aI233578
aI296210
aI161605
aI211388
aI156875
aI252014
aI24964
aI90786
aI132141
aI273713
aI73971
aI176371
aI403837
aI18794
aI34635
aI59726
aI258603
aI124058
aI139559
aI187838
aI247927
aI317332
aI257643
aI98881
aI386666
aI303983
aI142697
aI180245
aI26384
aI238018
aI55973
aI110467
aI10306
aI106826
aI259934
aI289863
aI116775
aI331041
aI357776
aI266251
aI321945
aI2723
aI393620
aI64475
aI322254
aI317502
aI259156
aI218329
aI392883
aI35542
aI157778
aI360518
aI223466
aI168327
aI353181
aI179922
aI82665
aI203755
aI359847
aI59584
aI297289
aI316976
aI277662
aI391925
aI139005
aI15102
aI16902
aI289207
aI339665
aI231517
aI133642
aI206871
aI388869
aI111475
aI152795
aI390036
aI251648
aI22968
aI358940
aI188790
aI15597
aI403401
aI257763
aI14337
aI294530
aI151077
aI282020
aI80743
aI45794
aI271877
aI189716
aI31440
aI33276
aI379427
aI279511
aI83640
aI198396
aI234746
aI168868
aI152658
aI67235
aI147695
aI171832
aI270551
aI273095
aI241449
aI292887
aI24223
aI388275
aI291752
aI276368
aI202629
aI313813
aI305391
aI373718
aI400524
aI206890
aI304516
aI136032
aI74602
aI14590
aI368682
aI167268
aI244767
aI94562
aI343973
aI264133
aI42453
aI222055
aI293988
aI183957
aI124580
aI59811
aI48915
aI57403
aI176835
aI217171
aI226918
aI237409
aI306588
aI211495
aI19631
aI289948
aI335227
aI48164
aI94111
aI109328
aI125347
aI350519
aI329616
aI54105
aI187145
aI172349
aI237120
aI255700
aI39324
aI286948
aI60153
aI57670
aI249275
aI254586
aI24095
aI81274
aI231727
aI91253
aI392650
aI359704
aI15072
aI286523
aI392991
aI301890
aI136065
aI43752
aI76660
aI253164
aI131825
aI221763
aI129034
aI47807
aI203191
aI241188
aI235851
aI117938
aI170030
aI338278
aI374735
aI394907
aI226156
aI13726
aI361578
aI389659
aI150251
aI344055
aI398705
aI397608
aI126597
aI109960
aI170799
aI96076
aI368232
aI15342
aI212139
aI180564
aI24776
aI324580
aI271209
aI217020
aI131512
aI198801
aI38106
aI133475
aI151838
aI35025
aI85012
aI197063
aI39703
aI288398
aI271018
aI59066
aI324768
aI193914
aI20270
aI401618
aI204983
aI153915
aI35048
aI69622
aI270510
aI148223
aI325585
aI169067
aI366627
aI152764
aI132246
aI162160
aI28588
aI321448
aI242663
aI359624
aI370012
aI283496
aI227997
aI210192
aI199164
aI184862
aI164873
aI261888
aI52612
aI85289
aI62009
aI363417
aI311635
aI86436
aI321247
aI402990
aI62510
aI100410
aI307901
aI92908
aI186391
aI373966
aI23523
aI35662
aI111949
aI160216
aI246778
aI14244
aI162354
aI387938
aI236848
aI26261
aI193770
aI237491
aI368800
aI363215
aI232231
aI261190
aI232802
aI300305
aI135882
aI204276
aI170897
aI84575
aI36607
aI147859
aI2478
aI379639
aI214897
aI36733
aI289706
aI246699
aI307735
aI314820
aI212455
aI350473
aI331096
aI361262
aI66975
aI328575
aI126082
aI87066
aI7023
aI16456
aI222637
aI250837
aI379147
aI41779
aI280178
aI42697
aI330091
aI126157
aI259607
aI287510
aI267154
aI396662
aI78624
aI333620
aI105938
aI181469
aI93199
aI113386
aI63482
aI226999
aI386973
aI153066
aI377887
aI13807
aI46093
aI316963
aI330727
aI268856
aI266680
aI245262
aI118099
aI342496
aI175731
aI110386
aI9422
aI354944
aI168648
aI280005
aI198091
aI249112
aI393789
aI138681
aI226060
aI389776
aI24627
aI37016
aI211672
aI93192
aI159095
aI45305
aI85131
aI321865
aI167392
aI204288
aI66710
aI151072
aI7828
aI380968
aI322431
aI40627
aI26512
aI403774
aI384574
aI187751
aI319810
aI85379
aI333733
aI333810
aI38326
aI236684
aI259812
aI231757
aI311166
aI230770
aI192403
aI3609
aI10503
aI366418
aI275811
aI96030
aI95998
aI147890
aI254474
aI369757
aI155058
aI47214
aI249455
aI234061
aI40222
aI78699
aI260352
aI343715
aI361623
aI172387
aI297661
aI305737
aI308653
aI354212
aI204480
aI347720
aI135296
aI195564
aI128389
aI393112
aI172002
aI86146
aI162644
aI323797
aI225846
aI175713
aI265208
aI285555
aI251620
aI165366
aI26630
aI99485
aI275727
aI152161
aI399596
aI332759
aI231988
aI310921
aI392899
aI389485
aI168953
aI223413
aI353857
aI398064
aI131943
aI303324
aI352226
aI214649
aI29880
aI379672
aI28085
aI5065
aI160721
aI277620
aI57854
aI75167
aI38819
aI259388
aI212857
aI288363
aI275669
aI341627
aI160983
aI354110
aI308232
aI27816
aI95525
aI325841
aI128570
aI145326
aI362443
aI246757
aI191403
aI65180
aI158991
aI261000
aI36758
aI365999
aI226735
aI166245
aI168765
aI314077
aI237131
aI221133
aI108370
aI88326
aI107439
aI176773
aI77594
aI288410
aI235818
aI281146
aI54906
aI96693
aI342773
aI336691
aI78323
aI26803
aI137205
aI224974
aI324951
aI380556
aI321808
aI175059
aI171099
aI18690
aI94709
aI130192
aI331910
aI64616
aI56628
aI125777
aI362326
aI92217
aI34869
aI202057
aI314984
aI192656
aI339244
aI218653
aI6719
aI359776
aI383639
aI174706
aI65202
aI134817
aI369950
aI395366
aI251332
aI50552
aI290961
aI297743
aI37358
aI221229
aI298508
aI271187
aI282567
aI19954
aI377792
aI348943
aI313428
aI180433
aI76430
aI280448
aI328899
aI84280
aI390651
aI310323
aI156918
aI182209
aI139575
aI350722
aI20612
aI115855
aI95076
aI137468
aI134930
aI52566
aI312402
aI292734
aI24706
aI202928
aI83256
aI308630
aI309793
aI207988
aI332819
aI336614
aI284659
aI17347
aI80127
aI301872
aI174695
aI384406
aI97371
aI284265
aI156279
aI133652
aI310874
aI156865
aI151899
aI251782
aI179017
aI172759
aI275207
aI5472
aI393410
aI293138
aI210553
aI223729
aI374007
aI16221
aI121809
aI276001
aI245375
aI118875
aI222910
aI125375
aI186976
aI257583
aI66253
aI23195
aI248151
aI64905
aI306198
aI13329
aI242901
aI234140
aI357309
aI388499
aI371630
aI30796
aI362572
aI89843
aI326888
aI347671
aI322414
aI226705
aI384951
aI317423
aI306993
aI306451
aI367370
aI128233
aI293684
aI205226
aI47055
aI218472
aI353331
aI200207
aI308203
aI258847
aI15193
aI208732
aI75072
aI303176
aI24125
aI352870
aI181675
aI339250
aI64477
aI196560
aI61616
aI231808
aI81998
aI391566
aI391701
aI330769
aI332686
aI66158
aI383482
aI380525
aI283442
aI185401
aI86233
aI186359
aI171844
aI296771
aI201483
aI301710
aI372250
aI50467
aI168039
aI125174
aI220038
aI156716
aI197281
aI187053
aI151905
aI58864
aI186884
aI370628
aI109762
aI157408
aI194180
aI272206
aI45140
aI174500
aI185020
aI266339
aI333092
aI243677
aI301422
aI69209
aI154773
aI295554
aI311949
aI177938
aI298748
aI116909
aI342190
aI88921
aI98817
aI311189
aI295993
aI150059
aI119896
aI247447
aI260410
aI169538
aI272974
aI3033
aI49508
aI340364
aI286346
aI345798
aI116030
aI278416
aI147700
aI268390
aI338972
aI80549
aI230513
aI268406
aI396528
aI248783
aI150462
aI206519
aI345654
aI193868
aI103307
aI254987
aI184915
aI197880
aI240169
aI399496
aI161620
aI369349
aI158503
aI153394
aI86403
aI216675
aI348080
aI66025
aI289650
aI167866
aI219521
aI153741
aI32940
aI117161
aI245586
aI106248
aI279292
aI259107
aI245776
aI261677
aI57248
aI392578
aI292700
aI331522
aI43126
aI85609
aI82631
aI258292
aI253050
aI211796
aI86480
aI9485
aI37979
aI156315
aI245292
aI262384
aI235519
aI228697
aI265749
aI361286
aI130946
aI2650
aI106535
aI72100
aI236168
aI79558
aI383627
aI162543
aI229026
aI67687
aI293766
aI333296
aI329075
aI7957
aI308018
aI79380
aI171136
aI74113
aI297843
aI222689
aI112307
aI16143
aI279841
aI170466
aI306049
aI212385
aI103683
aI34186
aI323872
aI103035
aI395223
aI315222
aI96084
aI50747
aI159228
aI352492
aI27790
aI303410
aI64780
aI257929
aI150852
aI370942
aI273001
aI106140
aI372282
aI254991
aI175542
aI171012
aI180997
aI55231
aI132027
aI342997
aI112883
aI120963
aI116763
aI11545
aI171167
aI129774
aI20482
aI303036
aI28270
aI22720
aI1764
aI228318
aI87578
aI377467
aI306058
aI353473
aI357000
aI190058
aI68517
aI236279
aI260136
aI293235
aI54274
aI121188
aI225611
aI273098
aI172710
aI402939
aI39927
aI300116
aI267339
aI352216
aI170206
aI80357
aI47245
aI155718
aI117656
aI115725
aI377070
aI85498
aI115997
aI209906
aI59879
aI224367
aI91327
aI321245
aI306812
aI33891
aI117991
aI375961
aI319536
aI153242
aI182670
aI121059
aI342668
aI45447
aI369674
aI181450
aI100039
aI56434
aI75489
aI1075
aI337217
aI193515
aI253116
aI51988
aI130490
aI389121
aI262369
aI129071
aI259209
aI355581
aI25848
aI100727
aI88427
aI168892
aI74977
aI218780
aI165629
aI24823
aI323457
aI336598
aI314126
aI177474
aI351588
aI81186
aI308315
aI108429
aI374505
aI347861
aI348685
aI153205
aI197987
aI145875
aI195165
aI125782
aI372940
aI329886
aI398765
aI29918
aI111942
aI189512
aI6337
aI183307
aI107481
aI165669
aI233678
aI35163
aI54857
aI180233
aI310042
aI230321
aI65242
aI95474
aI353685
aI223281
aI177556
aI401355
aI37278
aI307889
aI334694
aI291602
aI118677
aI357799
aI376258
aI170382
aI336427
aI257600
aI93916
aI79054
aI284537
aI58181
aI245369
aI275454
aI252880
aI144331
aI330237
aI91393
aI237494
aI344461
aI351247
aI302737
aI123672
aI364506
aI325206
aI400295
aI224128
aI96647
aI379060
aI103151
aI379457
aI366550
aI62746
aI57545
aI252257
aI314690
aI276094
aI155375
aI184815
aI208365
aI87270
aI395463
aI366873
aI339174
aI203017
aI361155
aI323807
aI9917
aI378986
aI171096
aI165399
aI55735
aI122903
aI160026
aI213247
aI261796
aI106923
aI355740
aI6131
aI297615
aI98198
aI196629
aI328686
aI283284
aI234056
aI98305
aI187491
aI318099
aI250501
aI167865
aI103095
aI164657
aI109092
aI35310
aI151053
aI172468
aI128507
aI202429
aI68154
aI370651
aI95535
aI338098
aI225479
aI364112
aI16330
aI200885
aI11209
aI195038
aI242647
aI288760
aI254622
aI103089
aI324639
aI17106
aI390110
aI359619
aI82245
aI71095
aI131359
aI62475
aI177217
aI329063
aI2370
aI24740
aI107544
aI9319
aI107831
aI188669
aI231975
aI286667
aI13760
aI320008
aI271879
aI143001
aI73923
aI250734
aI28273
aI366345
aI29112
aI230873
aI285636
aI222019
aI312326
aI277377
aI128460
aI52092
aI166284
aI217081
aI38731
aI333979
aI98075
aI182598
aI207044
aI281733
aI229331
aI149539
aI326765
aI281443
aI43471
aI86665
aI263683
aI371556
aI182692
aI240113
aI314542
aI346560
aI372295
aI231730
aI123181
aI15272
aI318450
aI146108
aI220178
aI180282
aI134694
aI253622
aI12965
aI325511
aI145296
aI247711
aI329840
aI34659
aI15788
aI212773
aI265925
aI154312
aI152853
aI207740
aI359413
aI338533
aI236814
aI179667
aI16939
aI101430
aI184894
aI58646
aI281004
aI155039
aI90572
aI134205
aI228796
aI24314
aI126483
aI272237
aI371494
aI130755
aI324318
aI14180
aI154087
aI37964
aI192458
aI274383
aI19299
aI199994
aI347791
aI396873
aI284334
aI17615
aI68985
aI265780
aI346106
aI143717
aI73435
aI404103
aI105208
aI110305
aI109670
aI331228
aI250330
aI392060
aI136103
aI311712
aI63059
aI108155
aI86960
aI198611
aI99674
aI369487
aI106893
aI343795
aI193095
aI250616
aI270531
aI220503
aI344616
aI323380
aI11367
aI35200
aI366018
aI71665
aI367495
aI233802
aI199143
aI71508
aI72962
aI287872
aI202657
aI160412
aI375877
aI379911
aI74807
aI375166
aI118807
aI25169
aI164343
aI127477
aI267848
aI175718
aI382691
aI185290
aI298636
aI348981
aI235497
aI341732
aI3095
aI89674
aI325112
aI295687
aI3660
aI329563
aI56451
aI148728
aI225768
aI384126
aI145108
aI14104
aI304391
aI301033
aI207947
aI76143
aI119380
aI50809
aI339029
aI214501
aI212185
aI128670
aI393868
aI356607
aI111362
aI343630
aI28101
aI230346
aI123503
aI235596
aI122770
aI70438
aI82580
aI398759
aI94334
aI2662
aI1843
aI9594
aI44676
aI148382
aI98039
aI81346
aI203990
aI75147
aI312810
aI61373
aI169751
aI52344
aI321603
aI318616
aI56871
aI87674
aI358794
aI41537
aI76832
aI348962
aI106790
aI155991
aI140146
aI221742
aI6251
aI163909
aI345106
aI54166
aI117197
aI240718
aI143010
aI70890
aI364787
aI14041
aI36822
aI399152
aI42654
aI138487
aI8299
aI372299
aI231908
aI384447
aI37959
aI14951
aI162212
aI118423
aI248260
aI324212
aI11996
aI330563
aI112042
aI231490
aI382664
aI72366
aI175270
aI133514
aI206513
aI367955
aI94766
aI28927
aI46829
aI61764
aI154516
aI154740
aI94192
aI238763
aI269057
aI363853
aI381354
aI167734
aI51050
aI403059
aI364903
aI134172
aI6052
aI339208
aI284440
aI387022
aI377138
aI187640
aI290602
aI134108
aI235498
aI48660
aI367011
aI271491
aI219890
aI158481
aI102536
aI93878
aI116948
aI305609
aI252915
aI114287
aI124392
aI302569
aI199289
aI332869
aI42298
aI231166
aI165670
aI338950
aI310192
aI25313
aI139627
aI364454
aI139236
aI305039
aI397045
aI321854
aI351816
aI352817
aI137802
aI293207
aI65981
aI19909
aI247878
aI111266
aI273040
aI160339
aI384298
aI243826
aI60130
aI211436
aI350966
aI85393
aI79332
aI17450
aI44783
aI338742
aI232046
aI116564
aI326419
aI1030
aI290934
aI16926
aI225281
aI383472
aI112206
aI320836
aI146444
aI106373
aI178840
aI279940
aI352696
aI22464
aI205717
aI69353
aI195504
aI372049
aI132414
aI175334
aI132454
aI217148
aI56653
aI71757
aI170025
aI6541
aI170901
aI245560
aI158697
aI287599
aI213613
aI31386
aI313045
aI164460
aI107328
aI362739
aI265520
aI257718
aI128202
aI74686
aI13612
aI195839
aI101748
aI168958
aI281356
aI245116
aI299623
aI198087
aI29680
aI362970
aI148727
aI359748
aI97094
aI349308
aI279430
aI326019
aI27433
aI230783
aI90503
aI4953
aI326176
aI67582
aI68031
aI330715
aI387162
aI181397
aI347934
aI189919
aI2257
aI292110
aI159067
aI171541
aI244541
aI127281
aI68992
aI361342
aI368100
aI259169
aI372008
aI288843
aI255261
aI217712
aI369379
aI147889
aI247532
aI245315
aI329526
aI75401
aI107952
aI147449
aI112431
aI118636
aI353795
aI156537
aI195375
aI364558
aI369949
aI297735
aI398414
aI261561
aI30001
aI14519
aI175483
aI300082
aI403153
aI179441
aI205179
aI306440
aI64937
aI304250
aI230455
aI196880
aI60327
aI373737
aI225851
aI332002
aI100783
aI97355
aI296996
aI15255
aI190391
aI16262
aI388574
aI330092
aI130036
aI237304
aI118039
aI172118
aI9794
aI111741
aI85459
aI62511
aI125450
aI294269
aI54624
aI192812
aI31658
aI136858
aI279059
aI354586
aI279307
aI254396
aI383477
aI194215
aI42518
aI206378
aI353433
aI108330
aI264740
aI280758
aI4501
aI376927
aI106011
aI215181
aI310896
aI29736
aI295960
aI356340
aI317829
aI21914
aI301682
aI226007
aI192073
aI278993
aI304192
aI69087
aI148598
aI115034
aI104766
aI83392
aI210220
aI351556
aI255146
aI49680
aI90891
aI244269
aI376098
aI357864
aI53858
aI247272
aI339191
aI115071
aI275239
aI283817
aI162481
aI69357
aI73958
aI375047
aI227560
aI392877
aI352999
aI260274
aI124862
aI189131
aI384611
aI8604
aI66405
aI234730
aI121544
aI393609
aI6032
aI114846
aI165837
aI47060
aI230495
aI307722
aI261110
aI203512
aI253946
aI335755
aI389015
aI264417
aI166826
aI278018
aI289092
aI25948
aI89931
aI371728
aI386102
aI228866
aI102689
aI17113
aI336951
aI323534
aI178872
aI392358
aI366399
aI271628
aI259403
aI111101
aI354167
aI282045
aI173308
aI66290
aI181671
aI97245
aI268214
aI158608
aI150836
aI46969
aI283018
aI108168
aI335037
aI285455
aI114477
aI249532
aI245249
aI55471
aI34122
aI58838
aI141726
aI326771
aI253816
aI98092
aI263758
aI330666
aI138795
aI82247
aI132610
aI20355
aI82772
aI257144
aI375506
aI74725
aI65051
aI238961
aI360590
aI82311
aI15060
aI135579
aI42373
aI254450
aI171341
aI391924
aI36401
aI251691
aI74300
aI27079
aI190726
aI255568
aI85224
aI32872
aI371335
aI79480
aI85291
aI57596
aI353792
aI248363
aI327015
aI382424
aI321310
aI95564
aI7288
aI319677
aI116133
aI373693
aI247109
aI133385
aI288823
aI252622
aI265736
aI192385
aI307003
aI166224
aI354567
aI295865
aI316890
aI391789
aI387539
aI384614
aI287418
aI325324
aI78807
aI145464
aI69815
aI78118
aI45173
aI128684
aI107600
aI148279
aI230818
aI217582
aI377646
aI137728
aI5529
aI72388
aI317652
aI312044
aI196387
aI147880
aI36931
aI236165
aI191427
aI11399
aI99242
aI9799
aI192904
aI6010
aI114900
aI105644
aI127386
aI208550
aI173579
aI261965
aI276542
aI53005
aI5369
aI221348
aI232321
aI383110
aI265778
aI92938
aI70703
aI338471
aI242579
aI46468
aI300795
aI280262
aI243730
aI256462
aI139352
aI402365
aI32836
aI225214
aI191325
aI19383
aI400625
aI54272
aI17708
aI60961
aI376543
aI299209
aI27631
aI313171
aI25217
aI215034
aI247409
aI237165
aI364685
aI264596
aI238441
aI367911
aI173521
aI90166
aI166538
aI388357
aI208291
aI275578
aI293192
aI105719
aI394125
aI323713
aI86535
aI393482
aI233098
aI315580
aI384102
aI248327
aI284496
aI305355
aI326938
aI371315
aI168948
aI389542
aI37389
aI302927
aI110192
aI69410
aI105194
aI102434
aI381636
aI367829
aI378797
aI84073
aI111070
aI390291
aI309368
aI349892
aI194341
aI279160
aI295449
aI331656
aI345727
aI312525
aI234388
aI56703
aI3932
aI213868
aI347038
aI256169
aI145069
aI384624
aI58407
aI131054
aI285083
aI14925
aI331308
aI72516
aI70159
aI317024
aI67260
aI385648
aI175150
aI162209
aI76579
aI157792
aI353679
aI97912
aI85005
aI173158
aI214879
aI193387
aI68452
aI347657
aI89591
aI83262
aI138447
aI71734
aI32432
aI138306
aI64523
aI287943
aI131796
aI140768
aI52857
aI67950
aI33763
aI233486
aI151741
aI294351
aI186812
aI152198
aI58932
aI394787
aI106074
aI116329
aI96298
aI47525
aI1135
aI135753
aI26970
aI89994
aI310063
aI154800
aI127747
aI109959
aI385034
aI165269
aI350930
aI55469
aI11793
aI6889
aI136872
aI343988
aI384566
aI172205
aI245261
aI95529
aI362144
aI141432
aI251478
aI22687
aI53398
aI401954
aI174825
aI79408
aI329317
aI358249
aI273335
aI144310
aI80381
aI279941
aI310845
aI352790
aI304135
aI18800
aI228218
aI309814
aI291567
aI329576
aI126264
aI129721
aI32161
aI300022
aI164604
aI18789
aI173457
aI24697
aI21974
aI253076
aI152363
aI346525
aI383446
aI199313
aI56597
aI393283
aI103602
aI88331
aI365622
aI32232
aI196538
aI105750
aI78242
aI269971
aI60752
aI270005
aI113898
aI343963
aI382905
aI135861
aI334938
aI203068
aI188599
aI386623
aI236432
aI6637
aI20558
aI227005
aI244999
aI163587
aI101770
aI291687
aI77805
aI316387
aI126127
aI118623
aI353249
aI385360
aI387303
aI361059
aI15474
aI184727
aI235816
aI311356
aI331673
aI143899
aI242866
aI63324
aI315770
aI137328
aI183744
aI33201
aI124235
aI212542
aI22563
aI280661
aI164576
aI359937
aI76703
aI52974
aI86825
aI153301
aI232485
aI63881
aI135595
aI109307
aI378765
aI353683
aI212997
aI215795
aI30720
aI55560
aI84747
aI133022
aI41734
aI49489
aI77307
aI177344
aI249452
aI98449
aI286135
aI61642
aI263261
aI223726
aI210724
aI110168
aI130347
aI77770
aI194219
aI343913
aI72614
aI59807
aI209335
aI274157
aI284072
aI170226
aI129797
aI259580
aI142550
aI138810
aI332660
aI242677
aI200274
aI80313
aI370247
aI215369
aI43898
aI312195
aI270694
aI224597
aI248995
aI330259
aI237339
aI51222
aI335658
aI93895
aI390791
aI160972
aI20568
aI369634
aI169633
aI175126
aI223958
aI311133
aI112568
aI341049
aI75501
aI328405
aI277767
aI94719
aI322409
aI84559
aI226394
aI281052
aI59311
aI131751
aI39213
aI278276
aI182875
aI108302
aI205516
aI266138
aI159732
aI75499
aI212606
aI252151
aI16387
aI122508
aI272515
aI119506
aI3056
aI176872
aI142353
aI209133
aI78782
aI366411
aI129378
aI191764
aI180640
aI188684
aI156045
aI392987
aI267445
aI345511
aI182712
aI391709
aI11311
aI263695
aI386699
aI119338
aI248540
aI400955
aI302069
aI387839
aI251942
aI277316
aI180932
aI207134
aI12710
aI387046
aI384896
aI321914
aI224256
aI395910
aI263997
aI78602
aI320818
aI81242
aI386176
aI291723
aI389128
aI398800
aI32957
aI87621
aI130628
aI163451
aI35957
aI364578
aI357548
aI233644
aI151293
aI3976
aI67334
aI21187
aI119763
aI355963
aI193996
aI248302
aI51470
aI54452
aI264970
aI9480
aI252358
aI295425
aI214425
aI254884
aI324257
aI336735
aI243508
aI132868
aI145625
aI389049
aI393257
aI19805
aI162520
aI157549
aI340537
aI228272
aI65984
aI60575
aI72255
aI76975
aI163087
aI213917
aI301309
aI351618
aI162149
aI333360
aI150136
aI43203
aI353095
aI386091
aI403068
aI126511
aI282308
aI164409
aI315814
aI350688
aI386932
aI173101
aI16568
aI277445
aI389648
aI173029
aI351489
aI129214
aI120690
aI381981
aI389369
aI80415
aI282185
aI254502
aI339485
aI297014
aI99301
aI281198
aI86808
aI197841
aI116442
aI134426
aI203223
aI95411
aI87291
aI208820
aI299930
aI250068
aI322492
aI321871
aI282702
aI218700
aI290195
aI150586
aI123611
aI96411
aI390590
aI70270
aI233850
aI321664
aI187098
aI383703
aI335700
aI21235
aI150094
aI383043
aI384454
aI34927
aI19431
aI211728
aI220723
aI155229
aI30218
aI206260
aI4690
aI361426
aI327301
aI136297
aI289352
aI5410
aI29026
aI168144
aI246125
aI363428
aI379349
aI127692
aI234407
aI321725
aI201608
aI198686
aI176351
aI386481
aI12254
aI206579
aI221191
aI66785
aI108766
aI217139
aI26613
aI9161
aI29546
aI20477
aI108401
aI68813
aI320604
aI285508
aI385806
aI109131
aI231451
aI252649
aI152123
aI259972
aI317690
aI163424
aI35722
aI335362
aI109386
aI142053
aI176981
aI54302
aI200314
aI266569
aI365693
aI159014
aI226786
aI213652
aI152261
aI114784
aI204361
aI12682
aI127454
aI40216
aI201172
aI139045
aI76254
aI318736
aI136554
aI215993
aI151493
aI230552
aI180922
aI85280
aI173403
aI170793
aI340430
aI185542
aI89309
aI176508
aI330183
aI48147
aI11443
aI31360
aI29640
aI138081
aI157033
aI103173
aI206854
aI319224
aI305537
aI272376
aI198131
aI195493
aI61735
aI165727
aI290048
aI65150
aI104747
aI88728
aI109303
aI76822
aI173993
aI368056
aI221766
aI46328
aI158932
aI365015
aI2742
aI177255
aI334589
aI119567
aI295024
aI361622
aI326302
aI267248
aI116447
aI8902
aI398779
aI384550
aI163269
aI396392
aI297720
aI102543
aI149216
aI129371
aI295700
aI19075
aI27036
aI284328
aI322415
aI383957
aI147113
aI403579
aI192221
aI63124
aI282394
aI115907
aI65543
aI67711
aI275589
aI182353
aI41211
aI1739
aI350784
aI5990
aI464
aI235885
aI348654
aI230566
aI371365
aI329277
aI12938
aI356216
aI64009
aI67104
aI47351
aI297531
aI111482
aI40320
aI337344
aI187972
aI80084
aI375763
aI121279
aI30658
aI223377
aI233906
aI391520
aI311502
aI269868
aI196482
aI313909
aI359034
aI260529
aI330880
aI31531
aI225203
aI12243
aI338632
aI44893
aI296779
aI342660
aI291762
aI24681
aI389323
aI163964
aI197549
aI283869
aI273577
aI92759
aI79097
aI133979
aI395218
aI397143
aI5603
aI281560
aI311404
aI255253
aI317935
aI134008
aI380985
aI137722
aI279384
aI256745
aI110710
aI375400
aI125675
aI73934
aI171251
aI317379
aI234187
aI234926
aI159131
aI306619
aI217146
aI310160
aI88209
aI199600
aI169995
aI382443
aI29950
aI123479
aI267182
aI8805
aI239287
aI341235
aI112051
aI211368
aI301419
aI300230
aI185914
aI22223
aI218728
aI93712
aI250138
aI242387
aI114077
aI293326
aI337364
aI157727
aI355520
aI140774
aI209315
aI110066
aI42402
aI319370
aI174536
aI154927
aI400192
aI39155
aI36889
aI213389
aI232014
aI310628
aI82993
aI218285
aI251530
aI103052
aI401230
aI52592
aI130409
aI304047
aI349260
aI106028
aI103632
aI197583
aI178710
aI3142
aI155999
aI35333
aI218479
aI343882
aI154818
aI170204
aI319176
aI269974
aI19545
aI388584
aI349534
aI371967
aI219959
aI220331
aI106929
aI251611
aI122963
aI211653
aI36750
aI161178
aI366350
aI337635
aI93823
aI3849
aI230384
aI95739
aI70426
aI6177
aI26999
aI289393
aI319649
aI254989
aI66987
aI97192
aI43273
aI1569
aI263233
aI273771
aI64842
aI148050
aI17244
aI34442
aI9811
aI145956
aI87530
aI117426
aI355404
aI391383
aI164325
aI386283
aI250537
aI402346
aI403014
aI56905
aI339643
aI356800
aI199760
aI332518
aI239901
aI46552
aI133525
aI192989
aI181923
aI346552
aI331864
aI84246
aI135868
aI328566
aI213925
aI149060
aI269455
aI49189
aI162406
aI98696
aI325553
aI171996
aI82791
aI89646
aI86416
aI287577
aI157047
aI401257
aI317691
aI16256
aI294323
aI230245
aI245783
aI336413
aI248926
aI194223
aI276682
aI271676
aI340150
aI101518
aI272179
aI36692
aI151515
aI194812
aI204470
aI134896
aI275380
aI222437
aI202983
aI115546
aI233518
aI125171
aI194546
aI96369
aI267384
aI32946
aI83972
aI328137
aI286148
aI237572
aI351699
aI93442
aI114202
aI9347
aI274110
aI48449
aI245057
aI138526
aI177102
aI284359
aI188971
aI218387
aI123194
aI155647
aI174189
aI221062
aI48110
aI45864
aI389085
aI243172
aI236596
aI387190
aI130988
aI31827
aI130516
aI360048
aI144662
aI299809
aI280190
aI19177
aI338269
aI88001
aI81835
aI5600
aI317869
aI370237
aI17546
aI361990
aI31
aI99009
aI148392
aI100705
aI329179
aI361491
aI276433
aI137103
aI19392
aI98024
aI395179
aI336540
aI283016
aI265742
aI350804
aI33287
aI287893
aI274555
aI328480
aI7055
aI219064
aI317246
aI160756
aI247740
aI25183
aI328829
aI89573
aI230892
aI383543
aI99312
aI129715
aI379400
aI323851
aI210358
aI383442
aI54779
aI321697
aI357165
aI32809
aI123793
aI358069
aI342898
aI64549
aI37488
aI357485
aI306363
aI310296
aI12934
aI59317
aI363650
aI134014
aI274712
aI146129
aI229387
aI133358
aI312230
aI197913
aI18616
aI151152
aI85100
aI143438
aI225512
aI338100
aI63014
aI293553
aI197782
aI350317
aI86994
aI94199
aI161191
aI262768
aI171770
aI394384
aI324713
aI333736
aI233297
aI180072
aI355254
aI107943
aI372514
aI150436
aI159778
aI76609
aI257234
aI210311
aI201353
aI287483
aI157632
aI371264
aI160480
aI324912
aI223389
aI4140
aI64483
aI128612
aI259857
aI114330
aI287052
aI29980
aI379683
aI253746
aI144396
aI266109
aI298626
aI378435
aI24739
aI394209
aI351867
aI152778
aI397483
aI378873
aI379436
aI158242
aI5355
aI316513
aI399465
aI138655
aI220931
aI14448
aI334697
aI64652
aI362842
aI211218
aI253678
aI45301
aI179109
aI18829
aI149549
aI54151
aI395974
aI290418
aI390512
aI106335
aI207803
aI120006
aI118072
aI373242
aI335302
aI283611
aI221053
aI106873
aI108603
aI74415
aI111681
aI208088
aI13785
aI190923
aI148320
aI159578
aI372563
aI200955
aI94265
aI324850
aI353180
aI312584
aI397971
aI125802
aI126679
aI148173
aI87859
aI368522
aI312170
aI11294
aI276220
aI401372
aI156870
aI14812
aI125292
aI116986
aI286896
aI392720
aI112146
aI119841
aI385591
aI264216
aI326392
aI121991
aI9009
aI216137
aI381178
aI176317
aI223177
aI392610
aI303304
aI395457
aI398260
aI312353
aI288889
aI216650
aI323604
aI313922
aI194800
aI149118
aI173609
aI127145
aI301891
aI374873
aI291029
aI365757
aI227463
aI403613
aI82722
aI385142
aI218379
aI312642
aI280673
aI368869
aI89341
aI284760
aI66916
aI373237
aI71514
aI47881
aI36985
aI260431
aI79831
aI342412
aI360678
aI276724
aI402039
aI79072
aI182023
aI342393
aI243014
aI136069
aI23127
aI202226
aI109462
aI371868
aI286720
aI319801
aI126188
aI296399
aI92711
aI287183
aI70287
aI339504
aI200850
aI194357
aI115057
aI102313
aI64167
aI188448
aI331847
aI273860
aI259514
aI199376
aI63048
aI214595
aI160667
aI193629
aI269930
aI76531
aI32364
aI393070
aI254321
aI147068
aI27842
aI244579
aI334157
aI121873
aI113923
aI267397
aI202607
aI104424
aI319424
aI186245
aI121871
aI297155
aI167596
aI285961
aI156459
aI66362
aI94187
aI37341
aI103664
aI93325
aI41901
aI303195
aI6022
aI95069
aI122700
aI356833
aI147437
aI189520
aI93647
aI385549
aI193402
aI107333
aI146649
aI241460
aI220079
aI157805
aI38587
aI109450
aI166141
aI277529
aI44108
aI224425
aI363740
aI33054
aI133667
aI77979
aI43618
aI257069
aI374734
aI208219
aI356410
aI296616
aI384451
aI70741
aI61738
aI54344
aI43251
aI65203
aI296843
aI191790
aI356809
aI237999
aI345953
aI301583
aI268195
aI351116
aI131697
aI269993
aI330508
aI366083
aI83497
aI316894
aI144652
aI330961
aI201152
aI381275
aI109113
aI193671
aI243929
aI362143
aI24140
aI196172
aI207546
aI346051
aI84509
aI253701
aI305641
aI155959
aI77123
aI32786
aI369610
aI309499
aI396987
aI374068
aI388367
aI339457
aI23718
aI307673
aI185911
aI111109
aI95847
aI134769
aI56190
aI105828
aI115109
aI159942
aI69759
aI263030
aI121368
aI330496
aI313015
aI345497
aI35364
aI175726
aI374297
aI172586
aI352519
aI159651
aI275806
aI70103
aI126218
aI347266
aI127400
aI48451
aI256470
aI156498
aI254207
aI125523
aI264999
aI97611
aI303960
aI265023
aI276879
aI8845
aI70900
aI197127
aI115834
aI46008
aI148388
aI298962
aI235990
aI186435
aI103635
aI172073
aI123325
aI204087
aI251423
aI187896
aI250828
aI55682
aI355182
aI84478
aI97007
aI116935
aI356964
aI245830
aI264488
aI48562
aI57468
aI379004
aI354376
aI260960
aI365970
aI170362
aI308321
aI355343
aI313980
aI186299
aI232824
aI218936
aI15111
aI338310
aI165549
aI178631
aI225090
aI65687
aI402062
aI61498
aI387103
aI141252
aI327165
aI380084
aI130797
aI323778
aI272185
aI174778
aI230895
aI356087
aI267910
aI184516
aI247839
aI275656
aI101846
aI258938
aI199082
aI38268
aI285512
aI342428
aI161129
aI6407
aI9781
aI123117
aI36765
aI289495
aI258733
aI357426
aI105613
aI107961
aI337689
aI45195
aI246969
aI39022
aI116258
aI32672
aI388434
aI382556
aI233323
aI397777
aI385454
aI275828
aI57517
aI259674
aI13670
aI224013
aI57757
aI125601
aI24882
aI192056
aI145558
aI386940
aI331726
aI288836
aI13873
aI233784
aI384342
aI360864
aI379226
aI294971
aI354926
aI345234
aI94410
aI59124
aI280260
aI247886
aI259194
aI97267
aI391172
aI83953
aI92905
aI43305
aI62345
aI196358
aI348056
aI240930
aI304479
aI85150
aI297812
aI182454
aI265430
aI260817
aI256033
aI44856
aI61192
aI303634
aI378231
aI55084
aI362236
aI47384
aI296075
aI184899
aI168873
aI51445
aI275292
aI356027
aI370448
aI213406
aI145575
aI64220
aI314178
aI298647
aI351294
aI55573
aI91821
aI313293
aI111966
aI60484
aI249189
aI144345
aI392833
aI296328
aI129075
aI115014
aI247290
aI142840
aI215267
aI193810
aI79587
aI363212
aI153406
aI196940
aI321258
aI311878
aI374895
aI396237
aI250772
aI256582
aI167270
aI208569
aI307176
aI6600
aI398936
aI51397
aI194942
aI132972
aI124958
aI112377
aI308363
aI198734
aI246077
aI340078
aI316082
aI121269
aI79680
aI216841
aI68836
aI123614
aI257575
aI181839
aI265107
aI99889
aI333798
aI201125
aI305265
aI379927
aI208087
aI390000
aI196799
aI213231
aI46682
aI121380
aI353272
aI63555
aI117974
aI157185
aI10815
aI51649
aI153746
aI33094
aI311062
aI151631
aI218669
aI267639
aI36860
aI137437
aI21931
aI66607
aI32109
aI337133
aI227238
aI85791
aI170398
aI100688
aI8686
aI92737
aI310530
aI28027
aI387960
aI313115
aI124226
aI104484
aI328879
aI45725
aI396829
aI99523
aI326043
aI188115
aI64828
aI278420
aI309995
aI148748
aI81584
aI101340
aI315582
aI355383
aI368553
aI19956
aI231669
aI318258
aI316054
aI96928
aI101903
aI108876
aI99302
aI87557
aI74205
aI397575
aI293534
aI3771
aI216305
aI241009
aI398149
aI375764
aI218375
aI59213
aI242674
aI86367
aI68368
aI227545
aI128385
aI385882
aI376086
aI206542
aI195893
aI312569
aI126161
aI44922
aI110915
aI62370
aI277361
aI392749
aI314960
aI234170
aI256017
aI214460
aI195932
aI122023
aI26107
aI90848
aI53052
aI82867
aI385245
aI38295
aI328635
aI52280
aI139805
aI11695
aI300311
aI299228
aI59944
aI22029
aI232356
aI216481
aI275770
aI307884
aI170334
aI242773
aI350409
aI38713
aI15423
aI145509
aI42002
aI386145
aI265688
aI84219
aI400493
aI279464
aI335319
aI370947
aI39276
aI134196
aI267050
aI377144
aI296449
aI303799
aI230350
aI199783
aI254271
aI214043
aI156185
aI38955
aI24670
aI128128
aI159686
aI236718
aI361540
aI323365
aI261500
aI236918
aI269811
aI26249
aI171617
aI290716
aI17465
aI396274
aI6746
aI385596
aI78043
aI126408
aI329500
aI81060
aI198730
aI207448
aI229635
aI24970
aI200066
aI210905
aI161658
aI213300
aI3985
aI112488
aI79780
aI391148
aI259189
aI95247
aI91512
aI184059
aI308334
aI317501
aI318192
aI189504
aI332875
aI24790
aI151970
aI12549
aI355817
aI166173
aI73836
aI359415
aI327416
aI281190
aI96340
aI243694
aI71041
aI158031
aI143659
aI55598
aI242057
aI14688
aI249471
aI256464
aI197942
aI74392
aI216346
aI26789
aI22539
aI265805
aI105268
aI257664
aI268785
aI54229
aI88710
aI112548
aI11124
aI139928
aI69400
aI233632
aI237189
aI346197
aI120113
aI242369
aI108267
aI274632
aI85554
aI187150
aI227897
aI28221
aI309357
aI92452
aI52093
aI121052
aI342161
aI367465
aI293744
aI323112
aI3656
aI398725
aI89492
aI255505
aI238060
aI336687
aI363990
aI236121
aI99542
aI289321
aI136082
aI313313
aI292961
aI289961
aI330812
aI197949
aI30670
aI232605
aI164890
aI10817
aI75246
aI196508
aI69782
aI383363
aI206606
aI286715
aI274886
aI40080
aI7481
aI108984
aI389109
aI173722
aI340252
aI226221
aI231149
aI13583
aI384003
aI221260
aI257703
aI42061
aI360912
aI331382
aI108238
aI85441
aI135436
aI97379
aI101674
aI276097
aI72605
aI141930
aI233365
aI24530
aI50817
aI109250
aI363091
aI74571
aI238047
aI391917
aI40545
aI262898
aI280377
aI197733
aI111063
aI62709
aI339163
aI287953
aI140676
aI325030
aI311011
aI277630
aI352826
aI172265
aI393091
aI377382
aI80935
aI266654
aI264777
aI278149
aI141010
aI203362
aI1284
aI170970
aI371000
aI88939
aI40067
aI172890
aI226923
aI278154
aI334373
aI245131
aI297362
aI258104
aI323875
aI46530
aI106521
aI361645
aI320948
aI53240
aI278768
aI154529
aI158669
aI241769
aI329800
aI211117
aI260814
aI140029
aI142158
aI319427
aI389651
aI98317
aI14058
aI227645
aI332137
aI92234
aI236529
aI26479
aI238916
aI196298
aI366523
aI195185
aI358730
aI150750
aI273072
aI175139
aI238096
aI178089
aI191231
aI160991
aI50456
aI132380
aI368089
aI280197
aI240550
aI85679
aI118918
aI364759
aI361338
aI33525
aI377108
aI343006
aI350723
aI64682
aI325983
aI157772
aI249182
aI148923
aI222902
aI141901
aI78948
aI264112
aI210270
aI57220
aI383426
aI164656
aI257411
aI345569
aI290129
aI222859
aI35330
aI195056
aI214011
aI30306
aI63428
aI22788
aI264787
aI282056
aI137682
aI150131
aI904
aI195139
aI300723
aI7256
aI211039
aI170130
aI100313
aI47976
aI378208
aI40920
aI200614
aI63126
aI307026
aI215417
aI125904
aI101991
aI2060
aI345439
aI82692
aI36396
aI135356
aI274005
aI84012
aI210412
aI141035
aI16399
aI130469
aI148476
aI375392
aI298499
aI389560
aI276752
aI74394
aI241056
aI159851
aI224104
aI57692
aI205737
aI255549
aI318064
aI148990
aI269571
aI38448
aI197218
aI225256
aI351798
aI118477
aI209916
aI227441
aI223163
aI371884
aI374472
aI6159
aI323587
aI108348
aI224495
aI371787
aI316872
aI276825
aI327312
aI2950
aI128411
aI297565
aI177988
aI189754
aI396652
aI312258
aI134917
aI321139
aI215952
aI6757
aI401307
aI263927
aI263062
aI259526
aI321787
aI63322
aI281656
aI371252
aI189807
aI3867
aI85240
aI320733
aI199137
aI178003
aI256469
aI166374
aI186627
aI156280
aI171808
aI61342
aI313978
aI51453
aI346347
aI327496
aI34793
aI365177
aI256606
aI282230
aI7336
aI167516
aI188415
aI138847
aI125698
aI88732
aI283797
aI82081
aI156332
aI386684
aI96384
aI320294
aI75686
aI130913
aI42995
aI155791
aI165007
aI160702
aI261735
aI231826
aI336728
aI76702
aI15637
aI49608
aI38586
aI114629
aI312823
aI3440
aI64998
aI364826
aI121699
aI79431
aI158263
aI265059
aI317308
aI159874
aI198496
aI150655
aI236093
aI22139
aI226831
aI61623
aI144910
aI37224
aI190979
aI244821
aI208657
aI240946
aI110930
aI179086
aI344566
aI349077
aI374524
aI368229
aI367639
aI351028
aI244887
aI337967
aI238837
aI187624
aI136932
aI251005
aI57600
aI338993
aI255026
aI120215
aI362176
aI114954
aI267140
aI294790
aI63695
aI337194
aI188256
aI395167
aI170925
aI169767
aI133494
aI105598
aI378949
aI325973
aI153657
aI197932
aI58911
aI254969
aI242120
aI171826
aI215958
aI387765
aI85578
aI18475
aI204848
aI394459
aI254354
aI383336
aI176919
aI308355
aI325130
aI260014
aI192547
aI187099
aI88434
aI217466
aI332695
aI284847
aI216986
aI23537
aI33099
aI368206
aI295888
aI161138
aI187672
aI8399
aI273571
aI325401
aI168717
aI106507
aI233774
aI83352
aI302293
aI258662
aI347639
aI133617
aI84225
aI343059
aI374325
aI203358
aI400731
aI134742
aI147755
aI82161
aI305775
aI176420
aI251735
aI340648
aI21412
aI274710
aI378398
aI163531
aI214715
aI199954
aI287167
aI238495
aI92007
aI146096
aI309468
aI338821
aI225244
aI230468
aI260287
aI212442
aI108632
aI91537
aI91885
aI13183
aI16596
aI247759
aI48270
aI99903
aI332654
aI170815
aI182442
aI124293
aI379017
aI155710
aI94839
aI84332
aI86855
aI191905
aI93969
aI340650
aI299433
aI116737
aI286448
aI48800
aI352064
aI258184
aI116336
aI221783
aI177347
aI49656
aI230115
aI318227
aI260224
aI43599
aI372025
aI356292
aI395734
aI299306
aI184310
aI401483
aI10784
aI284475
aI64206
aI120813
aI52325
aI13982
aI351779
aI310537
aI270808
aI269034
aI112095
aI836
aI13097
aI377040
aI95
aI221331
aI194929
aI171981
aI48473
aI242703
aI315025
aI224000
aI336306
aI126843
aI200558
aI16877
aI148921
aI132795
aI175627
aI221279
aI272154
aI68947
aI238157
aI133023
aI17480
aI314660
aI89935
aI267943
aI183852
aI212415
aI159432
aI250677
aI387337
aI320664
aI102080
aI247919
aI160821
aI378714
aI67302
aI131209
aI69974
aI322947
aI386507
aI397054
aI322109
aI300597
aI161074
aI147719
aI98674
aI71345
aI330721
aI59260
aI90733
aI401974
aI74409
aI135087
aI175039
aI332222
aI372729
aI392392
aI238545
aI316280
aI208790
aI249936
aI325419
aI147096
aI51038
aI212404
aI76582
aI129493
aI49566
aI399959
aI209743
aI47823
aI388515
aI155594
aI146830
aI35593
aI341710
aI103893
aI92574
aI345219
aI2853
aI181661
aI217038
aI325860
aI127139
aI64712
aI370369
aI251144
aI99710
aI105302
aI139280
aI23201
aI160842
aI42308
aI351628
aI9792
aI154551
aI170520
aI366708
aI2884
aI57642
aI318887
aI168190
aI248074
aI58724
aI91617
aI209146
aI310479
aI19559
aI40139
aI245032
aI187246
aI132659
aI391569
aI87659
aI240836
aI148203
aI75128
aI72262
aI393975
aI371170
aI4723
aI245650
aI141317
aI302411
aI309733
aI391759
aI112214
aI268843
aI10833
aI354036
aI150630
aI53956
aI329858
aI376606
aI250682
aI32090
aI280252
aI298030
aI78670
aI103281
aI194050
aI295259
aI44749
aI63497
aI30381
aI84485
aI38108
aI127700
aI212569
aI130780
aI6755
aI28155
aI208061
aI390843
aI236072
aI329845
aI118285
aI223964
aI302882
aI153483
aI39454
aI247347
aI78465
aI374841
aI230692
aI43610
aI266735
aI55785
aI179386
aI253055
aI286877
aI151404
aI78515
aI241881
aI69606
aI331424
aI278725
aI172767
aI156421
aI838
aI169011
aI271278
aI331278
aI182521
aI141681
aI232882
aI63898
aI107075
aI233009
aI161034
aI152407
aI148229
aI189559
aI250205
aI298187
aI35374
aI210894
aI391592
aI158578
aI156938
aI333167
aI149724
aI342851
aI395193
aI57328
aI23734
aI186826
aI271507
aI319738
aI304512
aI15217
aI213728
aI20840
aI72158
aI6918
aI35233
aI214447
aI103463
aI214946
aI269897
aI101912
aI354282
aI223418
aI254319
aI215428
aI206937
aI186502
aI140888
aI257168
aI372950
aI357246
aI129780
aI215232
aI1244
aI305753
aI211848
aI140199
aI365985
aI370421
aI112108
aI257485
aI192434
aI189192
aI28768
aI33402
aI322068
aI309451
aI267834
aI184677
aI209400
aI242630
aI305105
aI161052
aI290490
aI280395
aI165946
aI343855
aI304755
aI120141
aI301996
aI271390
aI357698
aI286647
aI128584
aI30586
aI337743
aI388105
aI337620
aI195437
aI101164
aI290986
aI63558
aI266456
aI353661
aI109874
aI20055
aI23211
aI51902
aI103843
aI24083
aI61130
aI154862
aI224322
aI297985
aI33042
aI116974
aI65312
aI340205
aI343905
aI63452
aI135312
aI382006
aI136742
aI289278
aI53984
aI188156
aI386190
aI336143
aI126774
aI80105
aI126917
aI109245
aI130546
aI292766
aI286934
aI181757
aI223513
aI340165
aI157496
aI400253
aI80680
aI6544
aI158555
aI287844
aI177778
aI105111
aI379548
aI331865
aI303996
aI15051
aI159900
aI175079
aI266704
aI381210
aI281467
aI317535
aI395908
aI54849
aI278499
aI168702
aI80436
aI175233
aI197109
aI68533
aI317746
aI58983
aI358576
aI231809
aI181718
aI369278
aI337466
aI381665
aI280934
aI45756
aI337526
aI333285
aI213432
aI159749
aI137228
aI364663
aI234583
aI224718
aI186506
aI96464
aI385441
aI145379
aI167128
aI329192
aI67033
aI367783
aI128484
aI297695
aI350291
aI150082
aI294874
aI195796
aI270751
aI240684
aI391003
aI348922
aI368094
aI371784
aI218136
aI336992
aI384625
aI4172
aI370353
aI397020
aI29231
aI315321
aI209187
aI282616
aI286570
aI145583
aI68860
aI137852
aI127276
aI63960
aI129390
aI215115
aI283440
aI385971
aI33958
aI328545
aI217502
aI324175
aI69529
aI290462
aI69843
aI252498
aI383075
aI342485
aI340731
aI126060
aI366243
aI173729
aI206879
aI294330
aI5706
aI223237
aI404080
aI99398
aI216973
aI266217
aI123970
aI312789
aI109787
aI244930
aI237142
aI368138
aI6933
aI74438
aI372964
aI195818
aI336471
aI311084
aI181214
aI161564
aI140863
aI36290
aI152229
aI134899
aI12729
aI170781
aI309761
aI252214
aI269245
aI116025
aI249177
aI138822
aI101086
aI40939
aI81378
aI15546
aI73674
aI68869
aI194472
aI291117
aI146123
aI130171
aI94655
aI343743
aI339856
aI208128
aI235253
aI57022
aI125819
aI132065
aI226001
aI66234
aI259399
aI76042
aI98049
aI222327
aI229455
aI227863
aI351192
aI127702
aI284820
aI120995
aI194411
aI277812
aI126144
aI378766
aI285452
aI24018
aI5085
aI311916
aI64760
aI121158
aI152479
aI5849
aI191798
aI272130
aI147961
aI15357
aI331292
aI206180
aI162596
aI60385
aI5465
aI385797
aI142247
aI36019
aI347684
aI328366
aI133951
aI304704
aI125878
aI159944
aI47263
aI9519
aI23741
aI274779
aI205983
aI17700
aI169228
aI113123
aI247378
aI3764
aI154203
aI261616
aI230086
aI365845
aI382313
aI64647
aI45903
aI32541
aI377880
aI44682
aI84123
aI170917
aI175283
aI289370
aI388722
aI363920
aI262791
aI79982
aI356795
aI157017
aI82820
aI366407
aI298362
aI259963
aI121354
aI56072
aI267032
aI297316
aI283040
aI27978
aI54403
aI385381
aI310170
aI256984
aI109319
aI161147
aI13196
aI191968
aI314458
aI53976
aI305357
aI260699
aI594
aI242275
aI323354
aI371588
aI354087
aI176392
aI380521
aI332630
aI35455
aI226646
aI19278
aI246346
aI145547
aI341247
aI304143
aI391123
aI256229
aI366775
aI208953
aI114741
aI266207
aI109431
aI242167
aI160632
aI193398
aI138813
aI142485
aI53145
aI25858
aI377206
aI305448
aI266020
aI184214
aI47409
aI193908
aI378248
aI187210
aI109793
aI287117
aI304628
aI144191
aI323370
aI100305
aI1689
aI248782
aI291618
aI351283
aI116369
aI354067
aI163619
aI148784
aI350811
aI307264
aI107723
aI328162
aI389515
aI262631
aI64851
aI260405
aI120247
aI185056
aI67881
aI2409
aI50221
aI303852
aI135870
aI119151
aI41339
aI25353
aI140058
aI233721
aI124904
aI153795
aI213523
aI113482
aI120590
aI188836
aI305789
aI32582
aI167409
aI140064
aI89375
aI321693
aI277787
aI281527
aI38338
aI206887
aI300837
aI4022
aI193121
aI249330
aI331468
aI227490
aI222739
aI41562
aI10399
aI34128
aI352755
aI26980
aI395472
aI62871
aI263049
aI242776
aI396688
aI149613
aI263418
aI62932
aI273973
aI364824
aI40489
aI322970
aI57082
aI17214
aI201562
aI221387
aI62107
aI371173
aI158288
aI367965
aI20868
aI154038
aI379475
aI197751
aI310411
aI279604
aI275780
a.